
bufbomb:     file format elf32-i386


Disassembly of section .init:

08049000 <_init>:
 8049000:	53                   	push   %ebx
 8049001:	83 ec 08             	sub    $0x8,%esp
 8049004:	e8 c7 02 00 00       	call   80492d0 <__x86.get_pc_thunk.bx>
 8049009:	81 c3 f7 3f 00 00    	add    $0x3ff7,%ebx
 804900f:	8b 83 fc ff ff ff    	mov    -0x4(%ebx),%eax
 8049015:	85 c0                	test   %eax,%eax
 8049017:	74 02                	je     804901b <_init+0x1b>
 8049019:	ff d0                	call   *%eax
 804901b:	83 c4 08             	add    $0x8,%esp
 804901e:	5b                   	pop    %ebx
 804901f:	c3                   	ret    

Disassembly of section .plt:

08049020 <.plt>:
 8049020:	ff 35 04 d0 04 08    	pushl  0x804d004
 8049026:	ff 25 08 d0 04 08    	jmp    *0x804d008
 804902c:	00 00                	add    %al,(%eax)
	...

08049030 <strcmp@plt>:
 8049030:	ff 25 0c d0 04 08    	jmp    *0x804d00c
 8049036:	68 00 00 00 00       	push   $0x0
 804903b:	e9 e0 ff ff ff       	jmp    8049020 <.plt>

08049040 <read@plt>:
 8049040:	ff 25 10 d0 04 08    	jmp    *0x804d010
 8049046:	68 08 00 00 00       	push   $0x8
 804904b:	e9 d0 ff ff ff       	jmp    8049020 <.plt>

08049050 <srandom@plt>:
 8049050:	ff 25 14 d0 04 08    	jmp    *0x804d014
 8049056:	68 10 00 00 00       	push   $0x10
 804905b:	e9 c0 ff ff ff       	jmp    8049020 <.plt>

08049060 <printf@plt>:
 8049060:	ff 25 18 d0 04 08    	jmp    *0x804d018
 8049066:	68 18 00 00 00       	push   $0x18
 804906b:	e9 b0 ff ff ff       	jmp    8049020 <.plt>

08049070 <memmove@plt>:
 8049070:	ff 25 1c d0 04 08    	jmp    *0x804d01c
 8049076:	68 20 00 00 00       	push   $0x20
 804907b:	e9 a0 ff ff ff       	jmp    8049020 <.plt>

08049080 <strdup@plt>:
 8049080:	ff 25 20 d0 04 08    	jmp    *0x804d020
 8049086:	68 28 00 00 00       	push   $0x28
 804908b:	e9 90 ff ff ff       	jmp    8049020 <.plt>

08049090 <memcpy@plt>:
 8049090:	ff 25 24 d0 04 08    	jmp    *0x804d024
 8049096:	68 30 00 00 00       	push   $0x30
 804909b:	e9 80 ff ff ff       	jmp    8049020 <.plt>

080490a0 <signal@plt>:
 80490a0:	ff 25 28 d0 04 08    	jmp    *0x804d028
 80490a6:	68 38 00 00 00       	push   $0x38
 80490ab:	e9 70 ff ff ff       	jmp    8049020 <.plt>

080490b0 <memcmp@plt>:
 80490b0:	ff 25 2c d0 04 08    	jmp    *0x804d02c
 80490b6:	68 40 00 00 00       	push   $0x40
 80490bb:	e9 60 ff ff ff       	jmp    8049020 <.plt>

080490c0 <alarm@plt>:
 80490c0:	ff 25 30 d0 04 08    	jmp    *0x804d030
 80490c6:	68 48 00 00 00       	push   $0x48
 80490cb:	e9 50 ff ff ff       	jmp    8049020 <.plt>

080490d0 <htons@plt>:
 80490d0:	ff 25 34 d0 04 08    	jmp    *0x804d034
 80490d6:	68 50 00 00 00       	push   $0x50
 80490db:	e9 40 ff ff ff       	jmp    8049020 <.plt>

080490e0 <fwrite@plt>:
 80490e0:	ff 25 38 d0 04 08    	jmp    *0x804d038
 80490e6:	68 58 00 00 00       	push   $0x58
 80490eb:	e9 30 ff ff ff       	jmp    8049020 <.plt>

080490f0 <strcpy@plt>:
 80490f0:	ff 25 3c d0 04 08    	jmp    *0x804d03c
 80490f6:	68 60 00 00 00       	push   $0x60
 80490fb:	e9 20 ff ff ff       	jmp    8049020 <.plt>

08049100 <getpid@plt>:
 8049100:	ff 25 40 d0 04 08    	jmp    *0x804d040
 8049106:	68 68 00 00 00       	push   $0x68
 804910b:	e9 10 ff ff ff       	jmp    8049020 <.plt>

08049110 <gethostname@plt>:
 8049110:	ff 25 44 d0 04 08    	jmp    *0x804d044
 8049116:	68 70 00 00 00       	push   $0x70
 804911b:	e9 00 ff ff ff       	jmp    8049020 <.plt>

08049120 <puts@plt>:
 8049120:	ff 25 48 d0 04 08    	jmp    *0x804d048
 8049126:	68 78 00 00 00       	push   $0x78
 804912b:	e9 f0 fe ff ff       	jmp    8049020 <.plt>

08049130 <exit@plt>:
 8049130:	ff 25 4c d0 04 08    	jmp    *0x804d04c
 8049136:	68 80 00 00 00       	push   $0x80
 804913b:	e9 e0 fe ff ff       	jmp    8049020 <.plt>

08049140 <srand@plt>:
 8049140:	ff 25 50 d0 04 08    	jmp    *0x804d050
 8049146:	68 88 00 00 00       	push   $0x88
 804914b:	e9 d0 fe ff ff       	jmp    8049020 <.plt>

08049150 <mmap@plt>:
 8049150:	ff 25 54 d0 04 08    	jmp    *0x804d054
 8049156:	68 90 00 00 00       	push   $0x90
 804915b:	e9 c0 fe ff ff       	jmp    8049020 <.plt>

08049160 <strlen@plt>:
 8049160:	ff 25 58 d0 04 08    	jmp    *0x804d058
 8049166:	68 98 00 00 00       	push   $0x98
 804916b:	e9 b0 fe ff ff       	jmp    8049020 <.plt>

08049170 <__libc_start_main@plt>:
 8049170:	ff 25 5c d0 04 08    	jmp    *0x804d05c
 8049176:	68 a0 00 00 00       	push   $0xa0
 804917b:	e9 a0 fe ff ff       	jmp    8049020 <.plt>

08049180 <write@plt>:
 8049180:	ff 25 60 d0 04 08    	jmp    *0x804d060
 8049186:	68 a8 00 00 00       	push   $0xa8
 804918b:	e9 90 fe ff ff       	jmp    8049020 <.plt>

08049190 <getopt@plt>:
 8049190:	ff 25 64 d0 04 08    	jmp    *0x804d064
 8049196:	68 b0 00 00 00       	push   $0xb0
 804919b:	e9 80 fe ff ff       	jmp    8049020 <.plt>

080491a0 <strcasecmp@plt>:
 80491a0:	ff 25 68 d0 04 08    	jmp    *0x804d068
 80491a6:	68 b8 00 00 00       	push   $0xb8
 80491ab:	e9 70 fe ff ff       	jmp    8049020 <.plt>

080491b0 <__isoc99_sscanf@plt>:
 80491b0:	ff 25 6c d0 04 08    	jmp    *0x804d06c
 80491b6:	68 c0 00 00 00       	push   $0xc0
 80491bb:	e9 60 fe ff ff       	jmp    8049020 <.plt>

080491c0 <memset@plt>:
 80491c0:	ff 25 70 d0 04 08    	jmp    *0x804d070
 80491c6:	68 c8 00 00 00       	push   $0xc8
 80491cb:	e9 50 fe ff ff       	jmp    8049020 <.plt>

080491d0 <__errno_location@plt>:
 80491d0:	ff 25 74 d0 04 08    	jmp    *0x804d074
 80491d6:	68 d0 00 00 00       	push   $0xd0
 80491db:	e9 40 fe ff ff       	jmp    8049020 <.plt>

080491e0 <rand@plt>:
 80491e0:	ff 25 78 d0 04 08    	jmp    *0x804d078
 80491e6:	68 d8 00 00 00       	push   $0xd8
 80491eb:	e9 30 fe ff ff       	jmp    8049020 <.plt>

080491f0 <munmap@plt>:
 80491f0:	ff 25 7c d0 04 08    	jmp    *0x804d07c
 80491f6:	68 e0 00 00 00       	push   $0xe0
 80491fb:	e9 20 fe ff ff       	jmp    8049020 <.plt>

08049200 <sprintf@plt>:
 8049200:	ff 25 80 d0 04 08    	jmp    *0x804d080
 8049206:	68 e8 00 00 00       	push   $0xe8
 804920b:	e9 10 fe ff ff       	jmp    8049020 <.plt>

08049210 <socket@plt>:
 8049210:	ff 25 84 d0 04 08    	jmp    *0x804d084
 8049216:	68 f0 00 00 00       	push   $0xf0
 804921b:	e9 00 fe ff ff       	jmp    8049020 <.plt>

08049220 <getc@plt>:
 8049220:	ff 25 88 d0 04 08    	jmp    *0x804d088
 8049226:	68 f8 00 00 00       	push   $0xf8
 804922b:	e9 f0 fd ff ff       	jmp    8049020 <.plt>

08049230 <random@plt>:
 8049230:	ff 25 8c d0 04 08    	jmp    *0x804d08c
 8049236:	68 00 01 00 00       	push   $0x100
 804923b:	e9 e0 fd ff ff       	jmp    8049020 <.plt>

08049240 <gethostbyname@plt>:
 8049240:	ff 25 90 d0 04 08    	jmp    *0x804d090
 8049246:	68 08 01 00 00       	push   $0x108
 804924b:	e9 d0 fd ff ff       	jmp    8049020 <.plt>

08049250 <connect@plt>:
 8049250:	ff 25 94 d0 04 08    	jmp    *0x804d094
 8049256:	68 10 01 00 00       	push   $0x110
 804925b:	e9 c0 fd ff ff       	jmp    8049020 <.plt>

08049260 <close@plt>:
 8049260:	ff 25 98 d0 04 08    	jmp    *0x804d098
 8049266:	68 18 01 00 00       	push   $0x118
 804926b:	e9 b0 fd ff ff       	jmp    8049020 <.plt>

08049270 <calloc@plt>:
 8049270:	ff 25 9c d0 04 08    	jmp    *0x804d09c
 8049276:	68 20 01 00 00       	push   $0x120
 804927b:	e9 a0 fd ff ff       	jmp    8049020 <.plt>

Disassembly of section .text:

08049280 <_start>:
 8049280:	31 ed                	xor    %ebp,%ebp
 8049282:	5e                   	pop    %esi
 8049283:	89 e1                	mov    %esp,%ecx
 8049285:	83 e4 f0             	and    $0xfffffff0,%esp
 8049288:	50                   	push   %eax
 8049289:	54                   	push   %esp
 804928a:	52                   	push   %edx
 804928b:	e8 23 00 00 00       	call   80492b3 <_start+0x33>
 8049290:	81 c3 70 3d 00 00    	add    $0x3d70,%ebx
 8049296:	8d 83 20 dc ff ff    	lea    -0x23e0(%ebx),%eax
 804929c:	50                   	push   %eax
 804929d:	8d 83 c0 db ff ff    	lea    -0x2440(%ebx),%eax
 80492a3:	50                   	push   %eax
 80492a4:	51                   	push   %ecx
 80492a5:	56                   	push   %esi
 80492a6:	c7 c0 d7 99 04 08    	mov    $0x80499d7,%eax
 80492ac:	50                   	push   %eax
 80492ad:	e8 be fe ff ff       	call   8049170 <__libc_start_main@plt>
 80492b2:	f4                   	hlt    
 80492b3:	8b 1c 24             	mov    (%esp),%ebx
 80492b6:	c3                   	ret    
 80492b7:	66 90                	xchg   %ax,%ax
 80492b9:	66 90                	xchg   %ax,%ax
 80492bb:	66 90                	xchg   %ax,%ax
 80492bd:	66 90                	xchg   %ax,%ax
 80492bf:	90                   	nop

080492c0 <_dl_relocate_static_pie>:
 80492c0:	c3                   	ret    
 80492c1:	66 90                	xchg   %ax,%ax
 80492c3:	66 90                	xchg   %ax,%ax
 80492c5:	66 90                	xchg   %ax,%ax
 80492c7:	66 90                	xchg   %ax,%ax
 80492c9:	66 90                	xchg   %ax,%ax
 80492cb:	66 90                	xchg   %ax,%ax
 80492cd:	66 90                	xchg   %ax,%ax
 80492cf:	90                   	nop

080492d0 <__x86.get_pc_thunk.bx>:
 80492d0:	8b 1c 24             	mov    (%esp),%ebx
 80492d3:	c3                   	ret    
 80492d4:	66 90                	xchg   %ax,%ax
 80492d6:	66 90                	xchg   %ax,%ax
 80492d8:	66 90                	xchg   %ax,%ax
 80492da:	66 90                	xchg   %ax,%ax
 80492dc:	66 90                	xchg   %ax,%ax
 80492de:	66 90                	xchg   %ax,%ax

080492e0 <deregister_tm_clones>:
 80492e0:	b8 98 d2 04 08       	mov    $0x804d298,%eax
 80492e5:	3d 98 d2 04 08       	cmp    $0x804d298,%eax
 80492ea:	74 24                	je     8049310 <deregister_tm_clones+0x30>
 80492ec:	b8 00 00 00 00       	mov    $0x0,%eax
 80492f1:	85 c0                	test   %eax,%eax
 80492f3:	74 1b                	je     8049310 <deregister_tm_clones+0x30>
 80492f5:	55                   	push   %ebp
 80492f6:	89 e5                	mov    %esp,%ebp
 80492f8:	83 ec 14             	sub    $0x14,%esp
 80492fb:	68 98 d2 04 08       	push   $0x804d298
 8049300:	ff d0                	call   *%eax
 8049302:	83 c4 10             	add    $0x10,%esp
 8049305:	c9                   	leave  
 8049306:	c3                   	ret    
 8049307:	8d b4 26 00 00 00 00 	lea    0x0(%esi,%eiz,1),%esi
 804930e:	66 90                	xchg   %ax,%ax
 8049310:	c3                   	ret    
 8049311:	8d b4 26 00 00 00 00 	lea    0x0(%esi,%eiz,1),%esi
 8049318:	8d b4 26 00 00 00 00 	lea    0x0(%esi,%eiz,1),%esi
 804931f:	90                   	nop

08049320 <register_tm_clones>:
 8049320:	b8 98 d2 04 08       	mov    $0x804d298,%eax
 8049325:	2d 98 d2 04 08       	sub    $0x804d298,%eax
 804932a:	c1 f8 02             	sar    $0x2,%eax
 804932d:	89 c2                	mov    %eax,%edx
 804932f:	c1 ea 1f             	shr    $0x1f,%edx
 8049332:	01 d0                	add    %edx,%eax
 8049334:	d1 f8                	sar    %eax
 8049336:	74 20                	je     8049358 <register_tm_clones+0x38>
 8049338:	ba 00 00 00 00       	mov    $0x0,%edx
 804933d:	85 d2                	test   %edx,%edx
 804933f:	74 17                	je     8049358 <register_tm_clones+0x38>
 8049341:	55                   	push   %ebp
 8049342:	89 e5                	mov    %esp,%ebp
 8049344:	83 ec 10             	sub    $0x10,%esp
 8049347:	50                   	push   %eax
 8049348:	68 98 d2 04 08       	push   $0x804d298
 804934d:	ff d2                	call   *%edx
 804934f:	83 c4 10             	add    $0x10,%esp
 8049352:	c9                   	leave  
 8049353:	c3                   	ret    
 8049354:	8d 74 26 00          	lea    0x0(%esi,%eiz,1),%esi
 8049358:	c3                   	ret    
 8049359:	8d b4 26 00 00 00 00 	lea    0x0(%esi,%eiz,1),%esi

08049360 <__do_global_dtors_aux>:
 8049360:	80 3d cc d2 04 08 00 	cmpb   $0x0,0x804d2cc
 8049367:	75 17                	jne    8049380 <__do_global_dtors_aux+0x20>
 8049369:	55                   	push   %ebp
 804936a:	89 e5                	mov    %esp,%ebp
 804936c:	83 ec 08             	sub    $0x8,%esp
 804936f:	e8 6c ff ff ff       	call   80492e0 <deregister_tm_clones>
 8049374:	c6 05 cc d2 04 08 01 	movb   $0x1,0x804d2cc
 804937b:	c9                   	leave  
 804937c:	c3                   	ret    
 804937d:	8d 76 00             	lea    0x0(%esi),%esi
 8049380:	c3                   	ret    
 8049381:	8d b4 26 00 00 00 00 	lea    0x0(%esi,%eiz,1),%esi
 8049388:	8d b4 26 00 00 00 00 	lea    0x0(%esi,%eiz,1),%esi
 804938f:	90                   	nop

08049390 <frame_dummy>:
 8049390:	eb 8e                	jmp    8049320 <register_tm_clones>

08049392 <JLgfWwSCLg>:
 8049392:	55                   	push   %ebp
 8049393:	89 e5                	mov    %esp,%ebp
 8049395:	83 ec 08             	sub    $0x8,%esp
 8049398:	90                   	nop
 8049399:	90                   	nop
 804939a:	90                   	nop
 804939b:	90                   	nop
 804939c:	90                   	nop
 804939d:	90                   	nop
 804939e:	90                   	nop
 804939f:	90                   	nop
 80493a0:	8b 45 0c             	mov    0xc(%ebp),%eax
 80493a3:	8d 14 00             	lea    (%eax,%eax,1),%edx
 80493a6:	8b 45 08             	mov    0x8(%ebp),%eax
 80493a9:	01 d0                	add    %edx,%eax
 80493ab:	89 45 f8             	mov    %eax,-0x8(%ebp)
 80493ae:	db 45 f8             	fildl  -0x8(%ebp)
 80493b1:	db 45 08             	fildl  0x8(%ebp)
 80493b4:	dd 05 28 b4 04 08    	fldl   0x804b428
 80493ba:	de f9                	fdivrp %st,%st(1)
 80493bc:	de c1                	faddp  %st,%st(1)
 80493be:	d9 5d fc             	fstps  -0x4(%ebp)
 80493c1:	d9 45 fc             	flds   -0x4(%ebp)
 80493c4:	c9                   	leave  
 80493c5:	c3                   	ret    

080493c6 <smoke>:
 80493c6:	55                   	push   %ebp
 80493c7:	89 e5                	mov    %esp,%ebp
 80493c9:	83 ec 08             	sub    $0x8,%esp
 80493cc:	83 ec 0c             	sub    $0xc,%esp
 80493cf:	68 50 b0 04 08       	push   $0x804b050
 80493d4:	e8 47 fd ff ff       	call   8049120 <puts@plt>
 80493d9:	83 c4 10             	add    $0x10,%esp
 80493dc:	83 ec 0c             	sub    $0xc,%esp
 80493df:	6a 00                	push   $0x0
 80493e1:	e8 c6 09 00 00       	call   8049dac <validate>
 80493e6:	83 c4 10             	add    $0x10,%esp
 80493e9:	83 ec 0c             	sub    $0xc,%esp
 80493ec:	6a 00                	push   $0x0
 80493ee:	e8 3d fd ff ff       	call   8049130 <exit@plt>

080493f3 <fizz>:
 80493f3:	55                   	push   %ebp
 80493f4:	89 e5                	mov    %esp,%ebp
 80493f6:	83 ec 08             	sub    $0x8,%esp
 80493f9:	8b 55 08             	mov    0x8(%ebp),%edx
 80493fc:	a1 e0 d2 04 08       	mov    0x804d2e0,%eax
 8049401:	39 c2                	cmp    %eax,%edx
 8049403:	75 22                	jne    8049427 <fizz+0x34>
 8049405:	83 ec 08             	sub    $0x8,%esp
 8049408:	ff 75 08             	pushl  0x8(%ebp)
 804940b:	68 6b b0 04 08       	push   $0x804b06b
 8049410:	e8 4b fc ff ff       	call   8049060 <printf@plt>
 8049415:	83 c4 10             	add    $0x10,%esp
 8049418:	83 ec 0c             	sub    $0xc,%esp
 804941b:	6a 01                	push   $0x1
 804941d:	e8 8a 09 00 00       	call   8049dac <validate>
 8049422:	83 c4 10             	add    $0x10,%esp
 8049425:	eb 13                	jmp    804943a <fizz+0x47>
 8049427:	83 ec 08             	sub    $0x8,%esp
 804942a:	ff 75 08             	pushl  0x8(%ebp)
 804942d:	68 8c b0 04 08       	push   $0x804b08c
 8049432:	e8 29 fc ff ff       	call   8049060 <printf@plt>
 8049437:	83 c4 10             	add    $0x10,%esp
 804943a:	83 ec 0c             	sub    $0xc,%esp
 804943d:	6a 00                	push   $0x0
 804943f:	e8 ec fc ff ff       	call   8049130 <exit@plt>

08049444 <bang>:
 8049444:	55                   	push   %ebp
 8049445:	89 e5                	mov    %esp,%ebp
 8049447:	83 ec 08             	sub    $0x8,%esp
 804944a:	a1 e8 d2 04 08       	mov    0x804d2e8,%eax
 804944f:	89 c2                	mov    %eax,%edx
 8049451:	a1 e0 d2 04 08       	mov    0x804d2e0,%eax
 8049456:	39 c2                	cmp    %eax,%edx
 8049458:	75 25                	jne    804947f <bang+0x3b>
 804945a:	a1 e8 d2 04 08       	mov    0x804d2e8,%eax
 804945f:	83 ec 08             	sub    $0x8,%esp
 8049462:	50                   	push   %eax
 8049463:	68 ac b0 04 08       	push   $0x804b0ac
 8049468:	e8 f3 fb ff ff       	call   8049060 <printf@plt>
 804946d:	83 c4 10             	add    $0x10,%esp
 8049470:	83 ec 0c             	sub    $0xc,%esp
 8049473:	6a 02                	push   $0x2
 8049475:	e8 32 09 00 00       	call   8049dac <validate>
 804947a:	83 c4 10             	add    $0x10,%esp
 804947d:	eb 16                	jmp    8049495 <bang+0x51>
 804947f:	a1 e8 d2 04 08       	mov    0x804d2e8,%eax
 8049484:	83 ec 08             	sub    $0x8,%esp
 8049487:	50                   	push   %eax
 8049488:	68 d1 b0 04 08       	push   $0x804b0d1
 804948d:	e8 ce fb ff ff       	call   8049060 <printf@plt>
 8049492:	83 c4 10             	add    $0x10,%esp
 8049495:	83 ec 0c             	sub    $0xc,%esp
 8049498:	6a 00                	push   $0x0
 804949a:	e8 91 fc ff ff       	call   8049130 <exit@plt>

0804949f <eval2equal>:
 804949f:	55                   	push   %ebp
 80494a0:	89 e5                	mov    %esp,%ebp
 80494a2:	83 ec 78             	sub    $0x78,%esp
 80494a5:	e8 86 fd ff ff       	call   8049230 <random@plt>
 80494aa:	89 c1                	mov    %eax,%ecx
 80494ac:	ba 61 60 60 60       	mov    $0x60606061,%edx
 80494b1:	89 c8                	mov    %ecx,%eax
 80494b3:	f7 ea                	imul   %edx
 80494b5:	c1 fa 05             	sar    $0x5,%edx
 80494b8:	89 c8                	mov    %ecx,%eax
 80494ba:	c1 f8 1f             	sar    $0x1f,%eax
 80494bd:	29 c2                	sub    %eax,%edx
 80494bf:	89 d0                	mov    %edx,%eax
 80494c1:	6b c0 55             	imul   $0x55,%eax,%eax
 80494c4:	29 c1                	sub    %eax,%ecx
 80494c6:	89 c8                	mov    %ecx,%eax
 80494c8:	89 c2                	mov    %eax,%edx
 80494ca:	8d 45 95             	lea    -0x6b(%ebp),%eax
 80494cd:	01 d0                	add    %edx,%eax
 80494cf:	89 45 f4             	mov    %eax,-0xc(%ebp)
 80494d2:	83 ec 04             	sub    $0x4,%esp
 80494d5:	ff 75 0c             	pushl  0xc(%ebp)
 80494d8:	68 ef b0 04 08       	push   $0x804b0ef
 80494dd:	ff 75 f4             	pushl  -0xc(%ebp)
 80494e0:	e8 1b fd ff ff       	call   8049200 <sprintf@plt>
 80494e5:	83 c4 10             	add    $0x10,%esp
 80494e8:	83 ec 04             	sub    $0x4,%esp
 80494eb:	6a 09                	push   $0x9
 80494ed:	ff 75 f4             	pushl  -0xc(%ebp)
 80494f0:	ff 75 08             	pushl  0x8(%ebp)
 80494f3:	e8 b8 fb ff ff       	call   80490b0 <memcmp@plt>
 80494f8:	83 c4 10             	add    $0x10,%esp
 80494fb:	85 c0                	test   %eax,%eax
 80494fd:	0f 94 c0             	sete   %al
 8049500:	0f b6 c0             	movzbl %al,%eax
 8049503:	c9                   	leave  
 8049504:	c3                   	ret    

08049505 <rumble>:
 8049505:	55                   	push   %ebp
 8049506:	89 e5                	mov    %esp,%ebp
 8049508:	83 ec 08             	sub    $0x8,%esp
 804950b:	a1 e0 d2 04 08       	mov    0x804d2e0,%eax
 8049510:	83 ec 08             	sub    $0x8,%esp
 8049513:	50                   	push   %eax
 8049514:	ff 75 08             	pushl  0x8(%ebp)
 8049517:	e8 83 ff ff ff       	call   804949f <eval2equal>
 804951c:	83 c4 10             	add    $0x10,%esp
 804951f:	85 c0                	test   %eax,%eax
 8049521:	74 22                	je     8049545 <rumble+0x40>
 8049523:	83 ec 08             	sub    $0x8,%esp
 8049526:	ff 75 08             	pushl  0x8(%ebp)
 8049529:	68 f4 b0 04 08       	push   $0x804b0f4
 804952e:	e8 2d fb ff ff       	call   8049060 <printf@plt>
 8049533:	83 c4 10             	add    $0x10,%esp
 8049536:	83 ec 0c             	sub    $0xc,%esp
 8049539:	6a 03                	push   $0x3
 804953b:	e8 6c 08 00 00       	call   8049dac <validate>
 8049540:	83 c4 10             	add    $0x10,%esp
 8049543:	eb 13                	jmp    8049558 <rumble+0x53>
 8049545:	83 ec 08             	sub    $0x8,%esp
 8049548:	ff 75 08             	pushl  0x8(%ebp)
 804954b:	68 18 b1 04 08       	push   $0x804b118
 8049550:	e8 0b fb ff ff       	call   8049060 <printf@plt>
 8049555:	83 c4 10             	add    $0x10,%esp
 8049558:	83 ec 0c             	sub    $0xc,%esp
 804955b:	6a 00                	push   $0x0
 804955d:	e8 ce fb ff ff       	call   8049130 <exit@plt>

08049562 <test>:
 8049562:	55                   	push   %ebp
 8049563:	89 e5                	mov    %esp,%ebp
 8049565:	83 ec 18             	sub    $0x18,%esp
 8049568:	e8 4c 04 00 00       	call   80499b9 <uniqueval>
 804956d:	89 45 f0             	mov    %eax,-0x10(%ebp)
 8049570:	e8 ba 06 00 00       	call   8049c2f <getbuf>
 8049575:	89 45 f4             	mov    %eax,-0xc(%ebp)
 8049578:	e8 3c 04 00 00       	call   80499b9 <uniqueval>
 804957d:	89 c2                	mov    %eax,%edx
 804957f:	8b 45 f0             	mov    -0x10(%ebp),%eax
 8049582:	39 c2                	cmp    %eax,%edx
 8049584:	74 12                	je     8049598 <test+0x36>
 8049586:	83 ec 0c             	sub    $0xc,%esp
 8049589:	68 3c b1 04 08       	push   $0x804b13c
 804958e:	e8 8d fb ff ff       	call   8049120 <puts@plt>
 8049593:	83 c4 10             	add    $0x10,%esp
 8049596:	eb 41                	jmp    80495d9 <test+0x77>
 8049598:	8b 55 f4             	mov    -0xc(%ebp),%edx
 804959b:	a1 e0 d2 04 08       	mov    0x804d2e0,%eax
 80495a0:	39 c2                	cmp    %eax,%edx
 80495a2:	75 22                	jne    80495c6 <test+0x64>
 80495a4:	83 ec 08             	sub    $0x8,%esp
 80495a7:	ff 75 f4             	pushl  -0xc(%ebp)
 80495aa:	68 65 b1 04 08       	push   $0x804b165
 80495af:	e8 ac fa ff ff       	call   8049060 <printf@plt>
 80495b4:	83 c4 10             	add    $0x10,%esp
 80495b7:	83 ec 0c             	sub    $0xc,%esp
 80495ba:	6a 04                	push   $0x4
 80495bc:	e8 eb 07 00 00       	call   8049dac <validate>
 80495c1:	83 c4 10             	add    $0x10,%esp
 80495c4:	eb 13                	jmp    80495d9 <test+0x77>
 80495c6:	83 ec 08             	sub    $0x8,%esp
 80495c9:	ff 75 f4             	pushl  -0xc(%ebp)
 80495cc:	68 82 b1 04 08       	push   $0x804b182
 80495d1:	e8 8a fa ff ff       	call   8049060 <printf@plt>
 80495d6:	83 c4 10             	add    $0x10,%esp
 80495d9:	90                   	nop
 80495da:	c9                   	leave  
 80495db:	c3                   	ret    

080495dc <testn>:
 80495dc:	55                   	push   %ebp
 80495dd:	89 e5                	mov    %esp,%ebp
 80495df:	83 ec 38             	sub    $0x38,%esp
 80495e2:	e8 d2 03 00 00       	call   80499b9 <uniqueval>
 80495e7:	89 45 d4             	mov    %eax,-0x2c(%ebp)
 80495ea:	e8 5c 06 00 00       	call   8049c4b <getbufn>
 80495ef:	89 45 f4             	mov    %eax,-0xc(%ebp)
 80495f2:	e8 c2 03 00 00       	call   80499b9 <uniqueval>
 80495f7:	89 c2                	mov    %eax,%edx
 80495f9:	8b 45 d4             	mov    -0x2c(%ebp),%eax
 80495fc:	39 c2                	cmp    %eax,%edx
 80495fe:	74 12                	je     8049612 <testn+0x36>
 8049600:	83 ec 0c             	sub    $0xc,%esp
 8049603:	68 3c b1 04 08       	push   $0x804b13c
 8049608:	e8 13 fb ff ff       	call   8049120 <puts@plt>
 804960d:	83 c4 10             	add    $0x10,%esp
 8049610:	eb 41                	jmp    8049653 <testn+0x77>
 8049612:	8b 55 f4             	mov    -0xc(%ebp),%edx
 8049615:	a1 e0 d2 04 08       	mov    0x804d2e0,%eax
 804961a:	39 c2                	cmp    %eax,%edx
 804961c:	75 22                	jne    8049640 <testn+0x64>
 804961e:	83 ec 08             	sub    $0x8,%esp
 8049621:	ff 75 f4             	pushl  -0xc(%ebp)
 8049624:	68 a0 b1 04 08       	push   $0x804b1a0
 8049629:	e8 32 fa ff ff       	call   8049060 <printf@plt>
 804962e:	83 c4 10             	add    $0x10,%esp
 8049631:	83 ec 0c             	sub    $0xc,%esp
 8049634:	6a 05                	push   $0x5
 8049636:	e8 71 07 00 00       	call   8049dac <validate>
 804963b:	83 c4 10             	add    $0x10,%esp
 804963e:	eb 13                	jmp    8049653 <testn+0x77>
 8049640:	83 ec 08             	sub    $0x8,%esp
 8049643:	ff 75 f4             	pushl  -0xc(%ebp)
 8049646:	68 c0 b1 04 08       	push   $0x804b1c0
 804964b:	e8 10 fa ff ff       	call   8049060 <printf@plt>
 8049650:	83 c4 10             	add    $0x10,%esp
 8049653:	90                   	nop
 8049654:	c9                   	leave  
 8049655:	c3                   	ret    

08049656 <save_char>:
 8049656:	55                   	push   %ebp
 8049657:	89 e5                	mov    %esp,%ebp
 8049659:	83 ec 04             	sub    $0x4,%esp
 804965c:	8b 45 08             	mov    0x8(%ebp),%eax
 804965f:	88 45 fc             	mov    %al,-0x4(%ebp)
 8049662:	a1 ec d2 04 08       	mov    0x804d2ec,%eax
 8049667:	3d ff 03 00 00       	cmp    $0x3ff,%eax
 804966c:	7f 70                	jg     80496de <save_char+0x88>
 804966e:	0f b6 45 fc          	movzbl -0x4(%ebp),%eax
 8049672:	c0 f8 04             	sar    $0x4,%al
 8049675:	0f be c0             	movsbl %al,%eax
 8049678:	83 e0 0f             	and    $0xf,%eax
 804967b:	89 c1                	mov    %eax,%ecx
 804967d:	8b 15 ec d2 04 08    	mov    0x804d2ec,%edx
 8049683:	89 d0                	mov    %edx,%eax
 8049685:	01 c0                	add    %eax,%eax
 8049687:	01 c2                	add    %eax,%edx
 8049689:	0f b6 81 70 d2 04 08 	movzbl 0x804d270(%ecx),%eax
 8049690:	88 82 20 e3 04 08    	mov    %al,0x804e320(%edx)
 8049696:	0f be 45 fc          	movsbl -0x4(%ebp),%eax
 804969a:	83 e0 0f             	and    $0xf,%eax
 804969d:	89 c1                	mov    %eax,%ecx
 804969f:	8b 15 ec d2 04 08    	mov    0x804d2ec,%edx
 80496a5:	89 d0                	mov    %edx,%eax
 80496a7:	01 c0                	add    %eax,%eax
 80496a9:	01 d0                	add    %edx,%eax
 80496ab:	8d 50 01             	lea    0x1(%eax),%edx
 80496ae:	0f b6 81 70 d2 04 08 	movzbl 0x804d270(%ecx),%eax
 80496b5:	88 82 20 e3 04 08    	mov    %al,0x804e320(%edx)
 80496bb:	8b 15 ec d2 04 08    	mov    0x804d2ec,%edx
 80496c1:	89 d0                	mov    %edx,%eax
 80496c3:	01 c0                	add    %eax,%eax
 80496c5:	01 d0                	add    %edx,%eax
 80496c7:	83 c0 02             	add    $0x2,%eax
 80496ca:	c6 80 20 e3 04 08 20 	movb   $0x20,0x804e320(%eax)
 80496d1:	a1 ec d2 04 08       	mov    0x804d2ec,%eax
 80496d6:	83 c0 01             	add    $0x1,%eax
 80496d9:	a3 ec d2 04 08       	mov    %eax,0x804d2ec
 80496de:	90                   	nop
 80496df:	c9                   	leave  
 80496e0:	c3                   	ret    

080496e1 <save_term>:
 80496e1:	55                   	push   %ebp
 80496e2:	89 e5                	mov    %esp,%ebp
 80496e4:	8b 15 ec d2 04 08    	mov    0x804d2ec,%edx
 80496ea:	89 d0                	mov    %edx,%eax
 80496ec:	01 c0                	add    %eax,%eax
 80496ee:	01 d0                	add    %edx,%eax
 80496f0:	c6 80 20 e3 04 08 00 	movb   $0x0,0x804e320(%eax)
 80496f7:	90                   	nop
 80496f8:	5d                   	pop    %ebp
 80496f9:	c3                   	ret    

080496fa <Gets>:
 80496fa:	55                   	push   %ebp
 80496fb:	89 e5                	mov    %esp,%ebp
 80496fd:	83 ec 18             	sub    $0x18,%esp
 8049700:	8b 45 08             	mov    0x8(%ebp),%eax
 8049703:	89 45 f4             	mov    %eax,-0xc(%ebp)
 8049706:	c7 05 ec d2 04 08 00 	movl   $0x0,0x804d2ec
 804970d:	00 00 00 
 8049710:	eb 1d                	jmp    804972f <Gets+0x35>
 8049712:	8b 45 f4             	mov    -0xc(%ebp),%eax
 8049715:	8d 50 01             	lea    0x1(%eax),%edx
 8049718:	89 55 f4             	mov    %edx,-0xc(%ebp)
 804971b:	8b 55 f0             	mov    -0x10(%ebp),%edx
 804971e:	88 10                	mov    %dl,(%eax)
 8049720:	8b 45 f0             	mov    -0x10(%ebp),%eax
 8049723:	0f be c0             	movsbl %al,%eax
 8049726:	50                   	push   %eax
 8049727:	e8 2a ff ff ff       	call   8049656 <save_char>
 804972c:	83 c4 04             	add    $0x4,%esp
 804972f:	a1 dc d2 04 08       	mov    0x804d2dc,%eax
 8049734:	83 ec 0c             	sub    $0xc,%esp
 8049737:	50                   	push   %eax
 8049738:	e8 e3 fa ff ff       	call   8049220 <getc@plt>
 804973d:	83 c4 10             	add    $0x10,%esp
 8049740:	89 45 f0             	mov    %eax,-0x10(%ebp)
 8049743:	83 7d f0 ff          	cmpl   $0xffffffff,-0x10(%ebp)
 8049747:	74 06                	je     804974f <Gets+0x55>
 8049749:	83 7d f0 0a          	cmpl   $0xa,-0x10(%ebp)
 804974d:	75 c3                	jne    8049712 <Gets+0x18>
 804974f:	8b 45 f4             	mov    -0xc(%ebp),%eax
 8049752:	8d 50 01             	lea    0x1(%eax),%edx
 8049755:	89 55 f4             	mov    %edx,-0xc(%ebp)
 8049758:	c6 00 00             	movb   $0x0,(%eax)
 804975b:	e8 81 ff ff ff       	call   80496e1 <save_term>
 8049760:	8b 45 08             	mov    0x8(%ebp),%eax
 8049763:	c9                   	leave  
 8049764:	c3                   	ret    

08049765 <usage>:
 8049765:	55                   	push   %ebp
 8049766:	89 e5                	mov    %esp,%ebp
 8049768:	83 ec 08             	sub    $0x8,%esp
 804976b:	83 ec 08             	sub    $0x8,%esp
 804976e:	ff 75 08             	pushl  0x8(%ebp)
 8049771:	68 dc b1 04 08       	push   $0x804b1dc
 8049776:	e8 e5 f8 ff ff       	call   8049060 <printf@plt>
 804977b:	83 c4 10             	add    $0x10,%esp
 804977e:	83 ec 0c             	sub    $0xc,%esp
 8049781:	68 fa b1 04 08       	push   $0x804b1fa
 8049786:	e8 95 f9 ff ff       	call   8049120 <puts@plt>
 804978b:	83 c4 10             	add    $0x10,%esp
 804978e:	83 ec 0c             	sub    $0xc,%esp
 8049791:	68 10 b2 04 08       	push   $0x804b210
 8049796:	e8 85 f9 ff ff       	call   8049120 <puts@plt>
 804979b:	83 c4 10             	add    $0x10,%esp
 804979e:	83 ec 0c             	sub    $0xc,%esp
 80497a1:	68 2c b2 04 08       	push   $0x804b22c
 80497a6:	e8 75 f9 ff ff       	call   8049120 <puts@plt>
 80497ab:	83 c4 10             	add    $0x10,%esp
 80497ae:	83 ec 0c             	sub    $0xc,%esp
 80497b1:	68 68 b2 04 08       	push   $0x804b268
 80497b6:	e8 65 f9 ff ff       	call   8049120 <puts@plt>
 80497bb:	83 c4 10             	add    $0x10,%esp
 80497be:	83 ec 0c             	sub    $0xc,%esp
 80497c1:	6a 00                	push   $0x0
 80497c3:	e8 68 f9 ff ff       	call   8049130 <exit@plt>

080497c8 <bushandler>:
 80497c8:	55                   	push   %ebp
 80497c9:	89 e5                	mov    %esp,%ebp
 80497cb:	83 ec 08             	sub    $0x8,%esp
 80497ce:	83 ec 0c             	sub    $0xc,%esp
 80497d1:	68 90 b2 04 08       	push   $0x804b290
 80497d6:	e8 45 f9 ff ff       	call   8049120 <puts@plt>
 80497db:	83 c4 10             	add    $0x10,%esp
 80497de:	83 ec 0c             	sub    $0xc,%esp
 80497e1:	68 b0 b2 04 08       	push   $0x804b2b0
 80497e6:	e8 35 f9 ff ff       	call   8049120 <puts@plt>
 80497eb:	83 c4 10             	add    $0x10,%esp
 80497ee:	83 ec 0c             	sub    $0xc,%esp
 80497f1:	6a 00                	push   $0x0
 80497f3:	e8 38 f9 ff ff       	call   8049130 <exit@plt>

080497f8 <seghandler>:
 80497f8:	55                   	push   %ebp
 80497f9:	89 e5                	mov    %esp,%ebp
 80497fb:	83 ec 08             	sub    $0x8,%esp
 80497fe:	83 ec 0c             	sub    $0xc,%esp
 8049801:	68 c8 b2 04 08       	push   $0x804b2c8
 8049806:	e8 15 f9 ff ff       	call   8049120 <puts@plt>
 804980b:	83 c4 10             	add    $0x10,%esp
 804980e:	83 ec 0c             	sub    $0xc,%esp
 8049811:	68 b0 b2 04 08       	push   $0x804b2b0
 8049816:	e8 05 f9 ff ff       	call   8049120 <puts@plt>
 804981b:	83 c4 10             	add    $0x10,%esp
 804981e:	83 ec 0c             	sub    $0xc,%esp
 8049821:	6a 00                	push   $0x0
 8049823:	e8 08 f9 ff ff       	call   8049130 <exit@plt>

08049828 <illegalhandler>:
 8049828:	55                   	push   %ebp
 8049829:	89 e5                	mov    %esp,%ebp
 804982b:	83 ec 08             	sub    $0x8,%esp
 804982e:	83 ec 0c             	sub    $0xc,%esp
 8049831:	68 f0 b2 04 08       	push   $0x804b2f0
 8049836:	e8 e5 f8 ff ff       	call   8049120 <puts@plt>
 804983b:	83 c4 10             	add    $0x10,%esp
 804983e:	83 ec 0c             	sub    $0xc,%esp
 8049841:	68 b0 b2 04 08       	push   $0x804b2b0
 8049846:	e8 d5 f8 ff ff       	call   8049120 <puts@plt>
 804984b:	83 c4 10             	add    $0x10,%esp
 804984e:	83 ec 0c             	sub    $0xc,%esp
 8049851:	6a 00                	push   $0x0
 8049853:	e8 d8 f8 ff ff       	call   8049130 <exit@plt>

08049858 <launch>:
 8049858:	55                   	push   %ebp
 8049859:	89 e5                	mov    %esp,%ebp
 804985b:	83 ec 58             	sub    $0x58,%esp
 804985e:	c7 45 f4 00 00 00 00 	movl   $0x0,-0xc(%ebp)
 8049865:	8d 45 b0             	lea    -0x50(%ebp),%eax
 8049868:	25 f0 3f 00 00       	and    $0x3ff0,%eax
 804986d:	89 45 f4             	mov    %eax,-0xc(%ebp)
 8049870:	8b 55 0c             	mov    0xc(%ebp),%edx
 8049873:	8b 45 f4             	mov    -0xc(%ebp),%eax
 8049876:	01 d0                	add    %edx,%eax
 8049878:	8d 50 0c             	lea    0xc(%eax),%edx
 804987b:	b8 10 00 00 00       	mov    $0x10,%eax
 8049880:	83 e8 01             	sub    $0x1,%eax
 8049883:	01 d0                	add    %edx,%eax
 8049885:	b9 10 00 00 00       	mov    $0x10,%ecx
 804988a:	ba 00 00 00 00       	mov    $0x0,%edx
 804988f:	f7 f1                	div    %ecx
 8049891:	6b c0 10             	imul   $0x10,%eax,%eax
 8049894:	29 c4                	sub    %eax,%esp
 8049896:	89 e0                	mov    %esp,%eax
 8049898:	83 c0 0f             	add    $0xf,%eax
 804989b:	c1 e8 04             	shr    $0x4,%eax
 804989e:	c1 e0 04             	shl    $0x4,%eax
 80498a1:	89 45 f0             	mov    %eax,-0x10(%ebp)
 80498a4:	83 ec 04             	sub    $0x4,%esp
 80498a7:	ff 75 f4             	pushl  -0xc(%ebp)
 80498aa:	68 f4 00 00 00       	push   $0xf4
 80498af:	ff 75 f0             	pushl  -0x10(%ebp)
 80498b2:	e8 09 f9 ff ff       	call   80491c0 <memset@plt>
 80498b7:	83 c4 10             	add    $0x10,%esp
 80498ba:	83 ec 0c             	sub    $0xc,%esp
 80498bd:	68 1b b3 04 08       	push   $0x804b31b
 80498c2:	e8 99 f7 ff ff       	call   8049060 <printf@plt>
 80498c7:	83 c4 10             	add    $0x10,%esp
 80498ca:	83 7d 08 00          	cmpl   $0x0,0x8(%ebp)
 80498ce:	74 07                	je     80498d7 <launch+0x7f>
 80498d0:	e8 07 fd ff ff       	call   80495dc <testn>
 80498d5:	eb 05                	jmp    80498dc <launch+0x84>
 80498d7:	e8 86 fc ff ff       	call   8049562 <test>
 80498dc:	a1 e4 d2 04 08       	mov    0x804d2e4,%eax
 80498e1:	85 c0                	test   %eax,%eax
 80498e3:	75 1a                	jne    80498ff <launch+0xa7>
 80498e5:	83 ec 0c             	sub    $0xc,%esp
 80498e8:	68 b0 b2 04 08       	push   $0x804b2b0
 80498ed:	e8 2e f8 ff ff       	call   8049120 <puts@plt>
 80498f2:	83 c4 10             	add    $0x10,%esp
 80498f5:	c7 05 e4 d2 04 08 00 	movl   $0x0,0x804d2e4
 80498fc:	00 00 00 
 80498ff:	90                   	nop
 8049900:	c9                   	leave  
 8049901:	c3                   	ret    

08049902 <launcher>:
 8049902:	55                   	push   %ebp
 8049903:	89 e5                	mov    %esp,%ebp
 8049905:	83 ec 18             	sub    $0x18,%esp
 8049908:	8b 45 08             	mov    0x8(%ebp),%eax
 804990b:	a3 f0 d2 04 08       	mov    %eax,0x804d2f0
 8049910:	8b 45 0c             	mov    0xc(%ebp),%eax
 8049913:	a3 f4 d2 04 08       	mov    %eax,0x804d2f4
 8049918:	83 ec 08             	sub    $0x8,%esp
 804991b:	6a 00                	push   $0x0
 804991d:	6a 00                	push   $0x0
 804991f:	68 32 01 00 00       	push   $0x132
 8049924:	6a 07                	push   $0x7
 8049926:	68 00 00 10 00       	push   $0x100000
 804992b:	68 00 f0 58 55       	push   $0x5558f000
 8049930:	e8 1b f8 ff ff       	call   8049150 <mmap@plt>
 8049935:	83 c4 20             	add    $0x20,%esp
 8049938:	89 45 f4             	mov    %eax,-0xc(%ebp)
 804993b:	81 7d f4 00 f0 58 55 	cmpl   $0x5558f000,-0xc(%ebp)
 8049942:	74 21                	je     8049965 <launcher+0x63>
 8049944:	a1 a0 d2 04 08       	mov    0x804d2a0,%eax
 8049949:	50                   	push   %eax
 804994a:	6a 47                	push   $0x47
 804994c:	6a 01                	push   $0x1
 804994e:	68 28 b3 04 08       	push   $0x804b328
 8049953:	e8 88 f7 ff ff       	call   80490e0 <fwrite@plt>
 8049958:	83 c4 10             	add    $0x10,%esp
 804995b:	83 ec 0c             	sub    $0xc,%esp
 804995e:	6a 01                	push   $0x1
 8049960:	e8 cb f7 ff ff       	call   8049130 <exit@plt>
 8049965:	8b 45 f4             	mov    -0xc(%ebp),%eax
 8049968:	05 f8 ff 0f 00       	add    $0xffff8,%eax
 804996d:	a3 00 e3 04 08       	mov    %eax,0x804e300
 8049972:	8b 15 00 e3 04 08    	mov    0x804e300,%edx
 8049978:	89 e0                	mov    %esp,%eax
 804997a:	89 d4                	mov    %edx,%esp
 804997c:	89 c2                	mov    %eax,%edx
 804997e:	89 15 f8 d2 04 08    	mov    %edx,0x804d2f8
 8049984:	8b 15 f4 d2 04 08    	mov    0x804d2f4,%edx
 804998a:	a1 f0 d2 04 08       	mov    0x804d2f0,%eax
 804998f:	83 ec 08             	sub    $0x8,%esp
 8049992:	52                   	push   %edx
 8049993:	50                   	push   %eax
 8049994:	e8 bf fe ff ff       	call   8049858 <launch>
 8049999:	83 c4 10             	add    $0x10,%esp
 804999c:	a1 f8 d2 04 08       	mov    0x804d2f8,%eax
 80499a1:	89 c4                	mov    %eax,%esp
 80499a3:	83 ec 08             	sub    $0x8,%esp
 80499a6:	68 00 00 10 00       	push   $0x100000
 80499ab:	ff 75 f4             	pushl  -0xc(%ebp)
 80499ae:	e8 3d f8 ff ff       	call   80491f0 <munmap@plt>
 80499b3:	83 c4 10             	add    $0x10,%esp
 80499b6:	90                   	nop
 80499b7:	c9                   	leave  
 80499b8:	c3                   	ret    

080499b9 <uniqueval>:
 80499b9:	55                   	push   %ebp
 80499ba:	89 e5                	mov    %esp,%ebp
 80499bc:	83 ec 08             	sub    $0x8,%esp
 80499bf:	e8 3c f7 ff ff       	call   8049100 <getpid@plt>
 80499c4:	83 ec 0c             	sub    $0xc,%esp
 80499c7:	50                   	push   %eax
 80499c8:	e8 83 f6 ff ff       	call   8049050 <srandom@plt>
 80499cd:	83 c4 10             	add    $0x10,%esp
 80499d0:	e8 5b f8 ff ff       	call   8049230 <random@plt>
 80499d5:	c9                   	leave  
 80499d6:	c3                   	ret    

080499d7 <main>:
 80499d7:	8d 4c 24 04          	lea    0x4(%esp),%ecx
 80499db:	83 e4 f0             	and    $0xfffffff0,%esp
 80499de:	ff 71 fc             	pushl  -0x4(%ecx)
 80499e1:	55                   	push   %ebp
 80499e2:	89 e5                	mov    %esp,%ebp
 80499e4:	53                   	push   %ebx
 80499e5:	51                   	push   %ecx
 80499e6:	83 ec 20             	sub    $0x20,%esp
 80499e9:	89 cb                	mov    %ecx,%ebx
 80499eb:	c7 45 e8 00 00 00 00 	movl   $0x0,-0x18(%ebp)
 80499f2:	c7 45 f4 00 00 00 00 	movl   $0x0,-0xc(%ebp)
 80499f9:	c7 45 ec 01 00 00 00 	movl   $0x1,-0x14(%ebp)
 8049a00:	83 ec 08             	sub    $0x8,%esp
 8049a03:	68 f8 97 04 08       	push   $0x80497f8
 8049a08:	6a 0b                	push   $0xb
 8049a0a:	e8 91 f6 ff ff       	call   80490a0 <signal@plt>
 8049a0f:	83 c4 10             	add    $0x10,%esp
 8049a12:	83 ec 08             	sub    $0x8,%esp
 8049a15:	68 c8 97 04 08       	push   $0x80497c8
 8049a1a:	6a 07                	push   $0x7
 8049a1c:	e8 7f f6 ff ff       	call   80490a0 <signal@plt>
 8049a21:	83 c4 10             	add    $0x10,%esp
 8049a24:	83 ec 08             	sub    $0x8,%esp
 8049a27:	68 28 98 04 08       	push   $0x8049828
 8049a2c:	6a 04                	push   $0x4
 8049a2e:	e8 6d f6 ff ff       	call   80490a0 <signal@plt>
 8049a33:	83 c4 10             	add    $0x10,%esp
 8049a36:	a1 c0 d2 04 08       	mov    0x804d2c0,%eax
 8049a3b:	a3 dc d2 04 08       	mov    %eax,0x804d2dc
 8049a40:	e9 a3 00 00 00       	jmp    8049ae8 <main+0x111>
 8049a45:	0f be 45 e7          	movsbl -0x19(%ebp),%eax
 8049a49:	83 e8 67             	sub    $0x67,%eax
 8049a4c:	83 f8 0e             	cmp    $0xe,%eax
 8049a4f:	0f 87 82 00 00 00    	ja     8049ad7 <main+0x100>
 8049a55:	8b 04 85 e8 b3 04 08 	mov    0x804b3e8(,%eax,4),%eax
 8049a5c:	ff e0                	jmp    *%eax
 8049a5e:	8b 43 04             	mov    0x4(%ebx),%eax
 8049a61:	8b 00                	mov    (%eax),%eax
 8049a63:	83 ec 0c             	sub    $0xc,%esp
 8049a66:	50                   	push   %eax
 8049a67:	e8 f9 fc ff ff       	call   8049765 <usage>
 8049a6c:	83 c4 10             	add    $0x10,%esp
 8049a6f:	eb 77                	jmp    8049ae8 <main+0x111>
 8049a71:	c7 45 f4 01 00 00 00 	movl   $0x1,-0xc(%ebp)
 8049a78:	c7 45 ec 05 00 00 00 	movl   $0x5,-0x14(%ebp)
 8049a7f:	eb 67                	jmp    8049ae8 <main+0x111>
 8049a81:	a1 c8 d2 04 08       	mov    0x804d2c8,%eax
 8049a86:	83 ec 0c             	sub    $0xc,%esp
 8049a89:	50                   	push   %eax
 8049a8a:	e8 f1 f5 ff ff       	call   8049080 <strdup@plt>
 8049a8f:	83 c4 10             	add    $0x10,%esp
 8049a92:	a3 d0 d2 04 08       	mov    %eax,0x804d2d0
 8049a97:	a1 d0 d2 04 08       	mov    0x804d2d0,%eax
 8049a9c:	83 ec 0c             	sub    $0xc,%esp
 8049a9f:	50                   	push   %eax
 8049aa0:	e8 d3 10 00 00       	call   804ab78 <gencookie>
 8049aa5:	83 c4 10             	add    $0x10,%esp
 8049aa8:	a3 e0 d2 04 08       	mov    %eax,0x804d2e0
 8049aad:	eb 39                	jmp    8049ae8 <main+0x111>
 8049aaf:	83 ec 0c             	sub    $0xc,%esp
 8049ab2:	68 70 b3 04 08       	push   $0x804b370
 8049ab7:	e8 64 f6 ff ff       	call   8049120 <puts@plt>
 8049abc:	83 c4 10             	add    $0x10,%esp
 8049abf:	c7 05 d4 d2 04 08 00 	movl   $0x0,0x804d2d4
 8049ac6:	00 00 00 
 8049ac9:	eb 1d                	jmp    8049ae8 <main+0x111>
 8049acb:	c7 05 d8 d2 04 08 01 	movl   $0x1,0x804d2d8
 8049ad2:	00 00 00 
 8049ad5:	eb 11                	jmp    8049ae8 <main+0x111>
 8049ad7:	8b 43 04             	mov    0x4(%ebx),%eax
 8049ada:	8b 00                	mov    (%eax),%eax
 8049adc:	83 ec 0c             	sub    $0xc,%esp
 8049adf:	50                   	push   %eax
 8049ae0:	e8 80 fc ff ff       	call   8049765 <usage>
 8049ae5:	83 c4 10             	add    $0x10,%esp
 8049ae8:	83 ec 04             	sub    $0x4,%esp
 8049aeb:	68 98 b3 04 08       	push   $0x804b398
 8049af0:	ff 73 04             	pushl  0x4(%ebx)
 8049af3:	ff 33                	pushl  (%ebx)
 8049af5:	e8 96 f6 ff ff       	call   8049190 <getopt@plt>
 8049afa:	83 c4 10             	add    $0x10,%esp
 8049afd:	88 45 e7             	mov    %al,-0x19(%ebp)
 8049b00:	80 7d e7 ff          	cmpb   $0xff,-0x19(%ebp)
 8049b04:	0f 85 3b ff ff ff    	jne    8049a45 <main+0x6e>
 8049b0a:	a1 d0 d2 04 08       	mov    0x804d2d0,%eax
 8049b0f:	85 c0                	test   %eax,%eax
 8049b11:	75 27                	jne    8049b3a <main+0x163>
 8049b13:	8b 43 04             	mov    0x4(%ebx),%eax
 8049b16:	8b 00                	mov    (%eax),%eax
 8049b18:	83 ec 08             	sub    $0x8,%esp
 8049b1b:	50                   	push   %eax
 8049b1c:	68 a0 b3 04 08       	push   $0x804b3a0
 8049b21:	e8 3a f5 ff ff       	call   8049060 <printf@plt>
 8049b26:	83 c4 10             	add    $0x10,%esp
 8049b29:	8b 43 04             	mov    0x4(%ebx),%eax
 8049b2c:	8b 00                	mov    (%eax),%eax
 8049b2e:	83 ec 0c             	sub    $0xc,%esp
 8049b31:	50                   	push   %eax
 8049b32:	e8 2e fc ff ff       	call   8049765 <usage>
 8049b37:	83 c4 10             	add    $0x10,%esp
 8049b3a:	e8 2e 01 00 00       	call   8049c6d <initialize_bomb>
 8049b3f:	a1 d0 d2 04 08       	mov    0x804d2d0,%eax
 8049b44:	83 ec 08             	sub    $0x8,%esp
 8049b47:	50                   	push   %eax
 8049b48:	68 cc b3 04 08       	push   $0x804b3cc
 8049b4d:	e8 0e f5 ff ff       	call   8049060 <printf@plt>
 8049b52:	83 c4 10             	add    $0x10,%esp
 8049b55:	a1 e0 d2 04 08       	mov    0x804d2e0,%eax
 8049b5a:	83 ec 08             	sub    $0x8,%esp
 8049b5d:	50                   	push   %eax
 8049b5e:	68 d8 b3 04 08       	push   $0x804b3d8
 8049b63:	e8 f8 f4 ff ff       	call   8049060 <printf@plt>
 8049b68:	83 c4 10             	add    $0x10,%esp
 8049b6b:	a1 e0 d2 04 08       	mov    0x804d2e0,%eax
 8049b70:	83 ec 0c             	sub    $0xc,%esp
 8049b73:	50                   	push   %eax
 8049b74:	e8 d7 f4 ff ff       	call   8049050 <srandom@plt>
 8049b79:	83 c4 10             	add    $0x10,%esp
 8049b7c:	e8 af f6 ff ff       	call   8049230 <random@plt>
 8049b81:	25 f0 0f 00 00       	and    $0xff0,%eax
 8049b86:	05 00 01 00 00       	add    $0x100,%eax
 8049b8b:	89 45 e8             	mov    %eax,-0x18(%ebp)
 8049b8e:	8b 45 ec             	mov    -0x14(%ebp),%eax
 8049b91:	83 ec 08             	sub    $0x8,%esp
 8049b94:	6a 04                	push   $0x4
 8049b96:	50                   	push   %eax
 8049b97:	e8 d4 f6 ff ff       	call   8049270 <calloc@plt>
 8049b9c:	83 c4 10             	add    $0x10,%esp
 8049b9f:	89 45 e0             	mov    %eax,-0x20(%ebp)
 8049ba2:	8b 45 e0             	mov    -0x20(%ebp),%eax
 8049ba5:	c7 00 00 00 00 00    	movl   $0x0,(%eax)
 8049bab:	c7 45 f0 01 00 00 00 	movl   $0x1,-0x10(%ebp)
 8049bb2:	eb 2a                	jmp    8049bde <main+0x207>
 8049bb4:	e8 77 f6 ff ff       	call   8049230 <random@plt>
 8049bb9:	25 f0 00 00 00       	and    $0xf0,%eax
 8049bbe:	89 c2                	mov    %eax,%edx
 8049bc0:	8b 45 f0             	mov    -0x10(%ebp),%eax
 8049bc3:	8d 0c 85 00 00 00 00 	lea    0x0(,%eax,4),%ecx
 8049bca:	8b 45 e0             	mov    -0x20(%ebp),%eax
 8049bcd:	01 c8                	add    %ecx,%eax
 8049bcf:	b9 80 00 00 00       	mov    $0x80,%ecx
 8049bd4:	29 d1                	sub    %edx,%ecx
 8049bd6:	89 ca                	mov    %ecx,%edx
 8049bd8:	89 10                	mov    %edx,(%eax)
 8049bda:	83 45 f0 01          	addl   $0x1,-0x10(%ebp)
 8049bde:	8b 45 f0             	mov    -0x10(%ebp),%eax
 8049be1:	3b 45 ec             	cmp    -0x14(%ebp),%eax
 8049be4:	7c ce                	jl     8049bb4 <main+0x1dd>
 8049be6:	c7 45 f0 00 00 00 00 	movl   $0x0,-0x10(%ebp)
 8049bed:	eb 29                	jmp    8049c18 <main+0x241>
 8049bef:	8b 45 f0             	mov    -0x10(%ebp),%eax
 8049bf2:	8d 14 85 00 00 00 00 	lea    0x0(,%eax,4),%edx
 8049bf9:	8b 45 e0             	mov    -0x20(%ebp),%eax
 8049bfc:	01 d0                	add    %edx,%eax
 8049bfe:	8b 10                	mov    (%eax),%edx
 8049c00:	8b 45 e8             	mov    -0x18(%ebp),%eax
 8049c03:	01 d0                	add    %edx,%eax
 8049c05:	83 ec 08             	sub    $0x8,%esp
 8049c08:	50                   	push   %eax
 8049c09:	ff 75 f4             	pushl  -0xc(%ebp)
 8049c0c:	e8 f1 fc ff ff       	call   8049902 <launcher>
 8049c11:	83 c4 10             	add    $0x10,%esp
 8049c14:	83 45 f0 01          	addl   $0x1,-0x10(%ebp)
 8049c18:	8b 45 f0             	mov    -0x10(%ebp),%eax
 8049c1b:	3b 45 ec             	cmp    -0x14(%ebp),%eax
 8049c1e:	7c cf                	jl     8049bef <main+0x218>
 8049c20:	b8 00 00 00 00       	mov    $0x0,%eax
 8049c25:	8d 65 f8             	lea    -0x8(%ebp),%esp
 8049c28:	59                   	pop    %ecx
 8049c29:	5b                   	pop    %ebx
 8049c2a:	5d                   	pop    %ebp
 8049c2b:	8d 61 fc             	lea    -0x4(%ecx),%esp
 8049c2e:	c3                   	ret    

08049c2f <getbuf>:
 8049c2f:	55                   	push   %ebp
 8049c30:	89 e5                	mov    %esp,%ebp
 8049c32:	83 ec 58             	sub    $0x58,%esp
 8049c35:	83 ec 0c             	sub    $0xc,%esp
 8049c38:	8d 45 aa             	lea    -0x56(%ebp),%eax
 8049c3b:	50                   	push   %eax
 8049c3c:	e8 b9 fa ff ff       	call   80496fa <Gets>
 8049c41:	83 c4 10             	add    $0x10,%esp
 8049c44:	b8 01 00 00 00       	mov    $0x1,%eax
 8049c49:	c9                   	leave  
 8049c4a:	c3                   	ret    

08049c4b <getbufn>:
 8049c4b:	55                   	push   %ebp
 8049c4c:	89 e5                	mov    %esp,%ebp
 8049c4e:	81 ec a8 02 00 00    	sub    $0x2a8,%esp
 8049c54:	83 ec 0c             	sub    $0xc,%esp
 8049c57:	8d 85 5e fd ff ff    	lea    -0x2a2(%ebp),%eax
 8049c5d:	50                   	push   %eax
 8049c5e:	e8 97 fa ff ff       	call   80496fa <Gets>
 8049c63:	83 c4 10             	add    $0x10,%esp
 8049c66:	b8 01 00 00 00       	mov    $0x1,%eax
 8049c6b:	c9                   	leave  
 8049c6c:	c3                   	ret    

08049c6d <initialize_bomb>:
 8049c6d:	55                   	push   %ebp
 8049c6e:	89 e5                	mov    %esp,%ebp
 8049c70:	81 ec 18 24 00 00    	sub    $0x2418,%esp
 8049c76:	c7 45 f0 00 00 00 00 	movl   $0x0,-0x10(%ebp)
 8049c7d:	a1 d8 d2 04 08       	mov    0x804d2d8,%eax
 8049c82:	85 c0                	test   %eax,%eax
 8049c84:	74 0d                	je     8049c93 <initialize_bomb+0x26>
 8049c86:	83 ec 0c             	sub    $0xc,%esp
 8049c89:	6a ff                	push   $0xffffffff
 8049c8b:	e8 ea 0b 00 00       	call   804a87a <init_timeout>
 8049c90:	83 c4 10             	add    $0x10,%esp
 8049c93:	a1 d4 d2 04 08       	mov    0x804d2d4,%eax
 8049c98:	85 c0                	test   %eax,%eax
 8049c9a:	0f 84 09 01 00 00    	je     8049da9 <initialize_bomb+0x13c>
 8049ca0:	83 ec 08             	sub    $0x8,%esp
 8049ca3:	68 00 04 00 00       	push   $0x400
 8049ca8:	8d 85 f0 fb ff ff    	lea    -0x410(%ebp),%eax
 8049cae:	50                   	push   %eax
 8049caf:	e8 5c f4 ff ff       	call   8049110 <gethostname@plt>
 8049cb4:	83 c4 10             	add    $0x10,%esp
 8049cb7:	85 c0                	test   %eax,%eax
 8049cb9:	74 1a                	je     8049cd5 <initialize_bomb+0x68>
 8049cbb:	83 ec 0c             	sub    $0xc,%esp
 8049cbe:	68 30 b4 04 08       	push   $0x804b430
 8049cc3:	e8 58 f4 ff ff       	call   8049120 <puts@plt>
 8049cc8:	83 c4 10             	add    $0x10,%esp
 8049ccb:	83 ec 0c             	sub    $0xc,%esp
 8049cce:	6a 08                	push   $0x8
 8049cd0:	e8 5b f4 ff ff       	call   8049130 <exit@plt>
 8049cd5:	c7 45 f4 00 00 00 00 	movl   $0x0,-0xc(%ebp)
 8049cdc:	eb 2e                	jmp    8049d0c <initialize_bomb+0x9f>
 8049cde:	8b 45 f4             	mov    -0xc(%ebp),%eax
 8049ce1:	8b 04 85 00 d3 04 08 	mov    0x804d300(,%eax,4),%eax
 8049ce8:	83 ec 08             	sub    $0x8,%esp
 8049ceb:	8d 95 f0 fb ff ff    	lea    -0x410(%ebp),%edx
 8049cf1:	52                   	push   %edx
 8049cf2:	50                   	push   %eax
 8049cf3:	e8 a8 f4 ff ff       	call   80491a0 <strcasecmp@plt>
 8049cf8:	83 c4 10             	add    $0x10,%esp
 8049cfb:	85 c0                	test   %eax,%eax
 8049cfd:	75 09                	jne    8049d08 <initialize_bomb+0x9b>
 8049cff:	c7 45 f0 01 00 00 00 	movl   $0x1,-0x10(%ebp)
 8049d06:	eb 12                	jmp    8049d1a <initialize_bomb+0xad>
 8049d08:	83 45 f4 01          	addl   $0x1,-0xc(%ebp)
 8049d0c:	8b 45 f4             	mov    -0xc(%ebp),%eax
 8049d0f:	8b 04 85 00 d3 04 08 	mov    0x804d300(,%eax,4),%eax
 8049d16:	85 c0                	test   %eax,%eax
 8049d18:	75 c4                	jne    8049cde <initialize_bomb+0x71>
 8049d1a:	83 7d f0 00          	cmpl   $0x0,-0x10(%ebp)
 8049d1e:	75 52                	jne    8049d72 <initialize_bomb+0x105>
 8049d20:	83 ec 08             	sub    $0x8,%esp
 8049d23:	8d 85 f0 fb ff ff    	lea    -0x410(%ebp),%eax
 8049d29:	50                   	push   %eax
 8049d2a:	68 68 b4 04 08       	push   $0x804b468
 8049d2f:	e8 2c f3 ff ff       	call   8049060 <printf@plt>
 8049d34:	83 c4 10             	add    $0x10,%esp
 8049d37:	c7 45 f4 00 00 00 00 	movl   $0x0,-0xc(%ebp)
 8049d3e:	eb 1a                	jmp    8049d5a <initialize_bomb+0xed>
 8049d40:	8b 45 f4             	mov    -0xc(%ebp),%eax
 8049d43:	8b 04 85 00 d3 04 08 	mov    0x804d300(,%eax,4),%eax
 8049d4a:	83 ec 0c             	sub    $0xc,%esp
 8049d4d:	50                   	push   %eax
 8049d4e:	e8 cd f3 ff ff       	call   8049120 <puts@plt>
 8049d53:	83 c4 10             	add    $0x10,%esp
 8049d56:	83 45 f4 01          	addl   $0x1,-0xc(%ebp)
 8049d5a:	8b 45 f4             	mov    -0xc(%ebp),%eax
 8049d5d:	8b 04 85 00 d3 04 08 	mov    0x804d300(,%eax,4),%eax
 8049d64:	85 c0                	test   %eax,%eax
 8049d66:	75 d8                	jne    8049d40 <initialize_bomb+0xd3>
 8049d68:	83 ec 0c             	sub    $0xc,%esp
 8049d6b:	6a 08                	push   $0x8
 8049d6d:	e8 be f3 ff ff       	call   8049130 <exit@plt>
 8049d72:	83 ec 0c             	sub    $0xc,%esp
 8049d75:	8d 85 f0 db ff ff    	lea    -0x2410(%ebp),%eax
 8049d7b:	50                   	push   %eax
 8049d7c:	e8 38 0b 00 00       	call   804a8b9 <init_driver>
 8049d81:	83 c4 10             	add    $0x10,%esp
 8049d84:	85 c0                	test   %eax,%eax
 8049d86:	79 21                	jns    8049da9 <initialize_bomb+0x13c>
 8049d88:	83 ec 08             	sub    $0x8,%esp
 8049d8b:	8d 85 f0 db ff ff    	lea    -0x2410(%ebp),%eax
 8049d91:	50                   	push   %eax
 8049d92:	68 a3 b4 04 08       	push   $0x804b4a3
 8049d97:	e8 c4 f2 ff ff       	call   8049060 <printf@plt>
 8049d9c:	83 c4 10             	add    $0x10,%esp
 8049d9f:	83 ec 0c             	sub    $0xc,%esp
 8049da2:	6a 08                	push   $0x8
 8049da4:	e8 87 f3 ff ff       	call   8049130 <exit@plt>
 8049da9:	90                   	nop
 8049daa:	c9                   	leave  
 8049dab:	c3                   	ret    

08049dac <validate>:
 8049dac:	55                   	push   %ebp
 8049dad:	89 e5                	mov    %esp,%ebp
 8049daf:	81 ec 18 40 00 00    	sub    $0x4018,%esp
 8049db5:	a1 d0 d2 04 08       	mov    0x804d2d0,%eax
 8049dba:	85 c0                	test   %eax,%eax
 8049dbc:	75 15                	jne    8049dd3 <validate+0x27>
 8049dbe:	83 ec 0c             	sub    $0xc,%esp
 8049dc1:	68 b8 b4 04 08       	push   $0x804b4b8
 8049dc6:	e8 55 f3 ff ff       	call   8049120 <puts@plt>
 8049dcb:	83 c4 10             	add    $0x10,%esp
 8049dce:	e9 36 01 00 00       	jmp    8049f09 <validate+0x15d>
 8049dd3:	83 7d 08 00          	cmpl   $0x0,0x8(%ebp)
 8049dd7:	78 06                	js     8049ddf <validate+0x33>
 8049dd9:	83 7d 08 05          	cmpl   $0x5,0x8(%ebp)
 8049ddd:	7e 15                	jle    8049df4 <validate+0x48>
 8049ddf:	83 ec 0c             	sub    $0xc,%esp
 8049de2:	68 e4 b4 04 08       	push   $0x804b4e4
 8049de7:	e8 34 f3 ff ff       	call   8049120 <puts@plt>
 8049dec:	83 c4 10             	add    $0x10,%esp
 8049def:	e9 15 01 00 00       	jmp    8049f09 <validate+0x15d>
 8049df4:	c7 05 e4 d2 04 08 01 	movl   $0x1,0x804d2e4
 8049dfb:	00 00 00 
 8049dfe:	8b 45 08             	mov    0x8(%ebp),%eax
 8049e01:	8b 04 85 80 d2 04 08 	mov    0x804d280(,%eax,4),%eax
 8049e08:	8d 50 ff             	lea    -0x1(%eax),%edx
 8049e0b:	8b 45 08             	mov    0x8(%ebp),%eax
 8049e0e:	89 14 85 80 d2 04 08 	mov    %edx,0x804d280(,%eax,4)
 8049e15:	8b 45 08             	mov    0x8(%ebp),%eax
 8049e18:	8b 04 85 80 d2 04 08 	mov    0x804d280(,%eax,4),%eax
 8049e1f:	85 c0                	test   %eax,%eax
 8049e21:	7e 15                	jle    8049e38 <validate+0x8c>
 8049e23:	83 ec 0c             	sub    $0xc,%esp
 8049e26:	68 0a b5 04 08       	push   $0x804b50a
 8049e2b:	e8 f0 f2 ff ff       	call   8049120 <puts@plt>
 8049e30:	83 c4 10             	add    $0x10,%esp
 8049e33:	e9 d1 00 00 00       	jmp    8049f09 <validate+0x15d>
 8049e38:	83 ec 0c             	sub    $0xc,%esp
 8049e3b:	68 15 b5 04 08       	push   $0x804b515
 8049e40:	e8 db f2 ff ff       	call   8049120 <puts@plt>
 8049e45:	83 c4 10             	add    $0x10,%esp
 8049e48:	a1 d4 d2 04 08       	mov    0x804d2d4,%eax
 8049e4d:	85 c0                	test   %eax,%eax
 8049e4f:	0f 84 a4 00 00 00    	je     8049ef9 <validate+0x14d>
 8049e55:	83 ec 0c             	sub    $0xc,%esp
 8049e58:	68 20 e3 04 08       	push   $0x804e320
 8049e5d:	e8 fe f2 ff ff       	call   8049160 <strlen@plt>
 8049e62:	83 c4 10             	add    $0x10,%esp
 8049e65:	83 c0 20             	add    $0x20,%eax
 8049e68:	3d 00 20 00 00       	cmp    $0x2000,%eax
 8049e6d:	76 15                	jbe    8049e84 <validate+0xd8>
 8049e6f:	83 ec 0c             	sub    $0xc,%esp
 8049e72:	68 1c b5 04 08       	push   $0x804b51c
 8049e77:	e8 a4 f2 ff ff       	call   8049120 <puts@plt>
 8049e7c:	83 c4 10             	add    $0x10,%esp
 8049e7f:	e9 85 00 00 00       	jmp    8049f09 <validate+0x15d>
 8049e84:	a1 e0 d2 04 08       	mov    0x804d2e0,%eax
 8049e89:	83 ec 0c             	sub    $0xc,%esp
 8049e8c:	68 20 e3 04 08       	push   $0x804e320
 8049e91:	50                   	push   %eax
 8049e92:	ff 75 08             	pushl  0x8(%ebp)
 8049e95:	68 53 b5 04 08       	push   $0x804b553
 8049e9a:	8d 85 f4 df ff ff    	lea    -0x200c(%ebp),%eax
 8049ea0:	50                   	push   %eax
 8049ea1:	e8 5a f3 ff ff       	call   8049200 <sprintf@plt>
 8049ea6:	83 c4 20             	add    $0x20,%esp
 8049ea9:	a1 d0 d2 04 08       	mov    0x804d2d0,%eax
 8049eae:	8d 95 f4 bf ff ff    	lea    -0x400c(%ebp),%edx
 8049eb4:	52                   	push   %edx
 8049eb5:	6a 00                	push   $0x0
 8049eb7:	8d 95 f4 df ff ff    	lea    -0x200c(%ebp),%edx
 8049ebd:	52                   	push   %edx
 8049ebe:	50                   	push   %eax
 8049ebf:	e8 a8 0b 00 00       	call   804aa6c <driver_post>
 8049ec4:	83 c4 10             	add    $0x10,%esp
 8049ec7:	89 45 f4             	mov    %eax,-0xc(%ebp)
 8049eca:	83 7d f4 00          	cmpl   $0x0,-0xc(%ebp)
 8049ece:	75 12                	jne    8049ee2 <validate+0x136>
 8049ed0:	83 ec 0c             	sub    $0xc,%esp
 8049ed3:	68 5c b5 04 08       	push   $0x804b55c
 8049ed8:	e8 43 f2 ff ff       	call   8049120 <puts@plt>
 8049edd:	83 c4 10             	add    $0x10,%esp
 8049ee0:	eb 17                	jmp    8049ef9 <validate+0x14d>
 8049ee2:	83 ec 08             	sub    $0x8,%esp
 8049ee5:	8d 85 f4 bf ff ff    	lea    -0x400c(%ebp),%eax
 8049eeb:	50                   	push   %eax
 8049eec:	68 8c b5 04 08       	push   $0x804b58c
 8049ef1:	e8 6a f1 ff ff       	call   8049060 <printf@plt>
 8049ef6:	83 c4 10             	add    $0x10,%esp
 8049ef9:	83 ec 0c             	sub    $0xc,%esp
 8049efc:	68 ca b5 04 08       	push   $0x804b5ca
 8049f01:	e8 1a f2 ff ff       	call   8049120 <puts@plt>
 8049f06:	83 c4 10             	add    $0x10,%esp
 8049f09:	c9                   	leave  
 8049f0a:	c3                   	ret    

08049f0b <sigalrm_handler>:
 8049f0b:	55                   	push   %ebp
 8049f0c:	89 e5                	mov    %esp,%ebp
 8049f0e:	83 ec 08             	sub    $0x8,%esp
 8049f11:	83 ec 08             	sub    $0x8,%esp
 8049f14:	6a 02                	push   $0x2
 8049f16:	68 d4 b5 04 08       	push   $0x804b5d4
 8049f1b:	e8 40 f1 ff ff       	call   8049060 <printf@plt>
 8049f20:	83 c4 10             	add    $0x10,%esp
 8049f23:	83 ec 0c             	sub    $0xc,%esp
 8049f26:	6a 01                	push   $0x1
 8049f28:	e8 03 f2 ff ff       	call   8049130 <exit@plt>

08049f2d <rio_readinitb>:
 8049f2d:	55                   	push   %ebp
 8049f2e:	89 e5                	mov    %esp,%ebp
 8049f30:	8b 45 08             	mov    0x8(%ebp),%eax
 8049f33:	8b 55 0c             	mov    0xc(%ebp),%edx
 8049f36:	89 10                	mov    %edx,(%eax)
 8049f38:	8b 45 08             	mov    0x8(%ebp),%eax
 8049f3b:	c7 40 04 00 00 00 00 	movl   $0x0,0x4(%eax)
 8049f42:	8b 45 08             	mov    0x8(%ebp),%eax
 8049f45:	8d 50 0c             	lea    0xc(%eax),%edx
 8049f48:	8b 45 08             	mov    0x8(%ebp),%eax
 8049f4b:	89 50 08             	mov    %edx,0x8(%eax)
 8049f4e:	90                   	nop
 8049f4f:	5d                   	pop    %ebp
 8049f50:	c3                   	ret    

08049f51 <rio_read>:
 8049f51:	55                   	push   %ebp
 8049f52:	89 e5                	mov    %esp,%ebp
 8049f54:	83 ec 18             	sub    $0x18,%esp
 8049f57:	eb 5f                	jmp    8049fb8 <rio_read+0x67>
 8049f59:	8b 45 08             	mov    0x8(%ebp),%eax
 8049f5c:	8d 50 0c             	lea    0xc(%eax),%edx
 8049f5f:	8b 45 08             	mov    0x8(%ebp),%eax
 8049f62:	8b 00                	mov    (%eax),%eax
 8049f64:	83 ec 04             	sub    $0x4,%esp
 8049f67:	68 00 20 00 00       	push   $0x2000
 8049f6c:	52                   	push   %edx
 8049f6d:	50                   	push   %eax
 8049f6e:	e8 cd f0 ff ff       	call   8049040 <read@plt>
 8049f73:	83 c4 10             	add    $0x10,%esp
 8049f76:	89 c2                	mov    %eax,%edx
 8049f78:	8b 45 08             	mov    0x8(%ebp),%eax
 8049f7b:	89 50 04             	mov    %edx,0x4(%eax)
 8049f7e:	8b 45 08             	mov    0x8(%ebp),%eax
 8049f81:	8b 40 04             	mov    0x4(%eax),%eax
 8049f84:	85 c0                	test   %eax,%eax
 8049f86:	79 13                	jns    8049f9b <rio_read+0x4a>
 8049f88:	e8 43 f2 ff ff       	call   80491d0 <__errno_location@plt>
 8049f8d:	8b 00                	mov    (%eax),%eax
 8049f8f:	83 f8 04             	cmp    $0x4,%eax
 8049f92:	74 24                	je     8049fb8 <rio_read+0x67>
 8049f94:	b8 ff ff ff ff       	mov    $0xffffffff,%eax
 8049f99:	eb 7f                	jmp    804a01a <rio_read+0xc9>
 8049f9b:	8b 45 08             	mov    0x8(%ebp),%eax
 8049f9e:	8b 40 04             	mov    0x4(%eax),%eax
 8049fa1:	85 c0                	test   %eax,%eax
 8049fa3:	75 07                	jne    8049fac <rio_read+0x5b>
 8049fa5:	b8 00 00 00 00       	mov    $0x0,%eax
 8049faa:	eb 6e                	jmp    804a01a <rio_read+0xc9>
 8049fac:	8b 45 08             	mov    0x8(%ebp),%eax
 8049faf:	8d 50 0c             	lea    0xc(%eax),%edx
 8049fb2:	8b 45 08             	mov    0x8(%ebp),%eax
 8049fb5:	89 50 08             	mov    %edx,0x8(%eax)
 8049fb8:	8b 45 08             	mov    0x8(%ebp),%eax
 8049fbb:	8b 40 04             	mov    0x4(%eax),%eax
 8049fbe:	85 c0                	test   %eax,%eax
 8049fc0:	7e 97                	jle    8049f59 <rio_read+0x8>
 8049fc2:	8b 45 10             	mov    0x10(%ebp),%eax
 8049fc5:	89 45 f4             	mov    %eax,-0xc(%ebp)
 8049fc8:	8b 45 08             	mov    0x8(%ebp),%eax
 8049fcb:	8b 40 04             	mov    0x4(%eax),%eax
 8049fce:	39 45 10             	cmp    %eax,0x10(%ebp)
 8049fd1:	76 09                	jbe    8049fdc <rio_read+0x8b>
 8049fd3:	8b 45 08             	mov    0x8(%ebp),%eax
 8049fd6:	8b 40 04             	mov    0x4(%eax),%eax
 8049fd9:	89 45 f4             	mov    %eax,-0xc(%ebp)
 8049fdc:	8b 55 f4             	mov    -0xc(%ebp),%edx
 8049fdf:	8b 45 08             	mov    0x8(%ebp),%eax
 8049fe2:	8b 40 08             	mov    0x8(%eax),%eax
 8049fe5:	83 ec 04             	sub    $0x4,%esp
 8049fe8:	52                   	push   %edx
 8049fe9:	50                   	push   %eax
 8049fea:	ff 75 0c             	pushl  0xc(%ebp)
 8049fed:	e8 9e f0 ff ff       	call   8049090 <memcpy@plt>
 8049ff2:	83 c4 10             	add    $0x10,%esp
 8049ff5:	8b 45 08             	mov    0x8(%ebp),%eax
 8049ff8:	8b 50 08             	mov    0x8(%eax),%edx
 8049ffb:	8b 45 f4             	mov    -0xc(%ebp),%eax
 8049ffe:	01 c2                	add    %eax,%edx
 804a000:	8b 45 08             	mov    0x8(%ebp),%eax
 804a003:	89 50 08             	mov    %edx,0x8(%eax)
 804a006:	8b 45 08             	mov    0x8(%ebp),%eax
 804a009:	8b 40 04             	mov    0x4(%eax),%eax
 804a00c:	2b 45 f4             	sub    -0xc(%ebp),%eax
 804a00f:	89 c2                	mov    %eax,%edx
 804a011:	8b 45 08             	mov    0x8(%ebp),%eax
 804a014:	89 50 04             	mov    %edx,0x4(%eax)
 804a017:	8b 45 f4             	mov    -0xc(%ebp),%eax
 804a01a:	c9                   	leave  
 804a01b:	c3                   	ret    

0804a01c <rio_readlineb>:
 804a01c:	55                   	push   %ebp
 804a01d:	89 e5                	mov    %esp,%ebp
 804a01f:	83 ec 18             	sub    $0x18,%esp
 804a022:	8b 45 0c             	mov    0xc(%ebp),%eax
 804a025:	89 45 f0             	mov    %eax,-0x10(%ebp)
 804a028:	c7 45 f4 01 00 00 00 	movl   $0x1,-0xc(%ebp)
 804a02f:	eb 54                	jmp    804a085 <rio_readlineb+0x69>
 804a031:	83 ec 04             	sub    $0x4,%esp
 804a034:	6a 01                	push   $0x1
 804a036:	8d 45 eb             	lea    -0x15(%ebp),%eax
 804a039:	50                   	push   %eax
 804a03a:	ff 75 08             	pushl  0x8(%ebp)
 804a03d:	e8 0f ff ff ff       	call   8049f51 <rio_read>
 804a042:	83 c4 10             	add    $0x10,%esp
 804a045:	89 45 ec             	mov    %eax,-0x14(%ebp)
 804a048:	83 7d ec 01          	cmpl   $0x1,-0x14(%ebp)
 804a04c:	75 19                	jne    804a067 <rio_readlineb+0x4b>
 804a04e:	8b 45 f0             	mov    -0x10(%ebp),%eax
 804a051:	8d 50 01             	lea    0x1(%eax),%edx
 804a054:	89 55 f0             	mov    %edx,-0x10(%ebp)
 804a057:	0f b6 55 eb          	movzbl -0x15(%ebp),%edx
 804a05b:	88 10                	mov    %dl,(%eax)
 804a05d:	0f b6 45 eb          	movzbl -0x15(%ebp),%eax
 804a061:	3c 0a                	cmp    $0xa,%al
 804a063:	75 1c                	jne    804a081 <rio_readlineb+0x65>
 804a065:	eb 29                	jmp    804a090 <rio_readlineb+0x74>
 804a067:	83 7d ec 00          	cmpl   $0x0,-0x14(%ebp)
 804a06b:	75 0d                	jne    804a07a <rio_readlineb+0x5e>
 804a06d:	83 7d f4 01          	cmpl   $0x1,-0xc(%ebp)
 804a071:	75 1c                	jne    804a08f <rio_readlineb+0x73>
 804a073:	b8 00 00 00 00       	mov    $0x0,%eax
 804a078:	eb 1f                	jmp    804a099 <rio_readlineb+0x7d>
 804a07a:	b8 ff ff ff ff       	mov    $0xffffffff,%eax
 804a07f:	eb 18                	jmp    804a099 <rio_readlineb+0x7d>
 804a081:	83 45 f4 01          	addl   $0x1,-0xc(%ebp)
 804a085:	8b 45 f4             	mov    -0xc(%ebp),%eax
 804a088:	39 45 10             	cmp    %eax,0x10(%ebp)
 804a08b:	77 a4                	ja     804a031 <rio_readlineb+0x15>
 804a08d:	eb 01                	jmp    804a090 <rio_readlineb+0x74>
 804a08f:	90                   	nop
 804a090:	8b 45 f0             	mov    -0x10(%ebp),%eax
 804a093:	c6 00 00             	movb   $0x0,(%eax)
 804a096:	8b 45 f4             	mov    -0xc(%ebp),%eax
 804a099:	c9                   	leave  
 804a09a:	c3                   	ret    

0804a09b <rio_writen>:
 804a09b:	55                   	push   %ebp
 804a09c:	89 e5                	mov    %esp,%ebp
 804a09e:	83 ec 18             	sub    $0x18,%esp
 804a0a1:	8b 45 10             	mov    0x10(%ebp),%eax
 804a0a4:	89 45 f4             	mov    %eax,-0xc(%ebp)
 804a0a7:	8b 45 0c             	mov    0xc(%ebp),%eax
 804a0aa:	89 45 ec             	mov    %eax,-0x14(%ebp)
 804a0ad:	eb 45                	jmp    804a0f4 <rio_writen+0x59>
 804a0af:	83 ec 04             	sub    $0x4,%esp
 804a0b2:	ff 75 f4             	pushl  -0xc(%ebp)
 804a0b5:	ff 75 ec             	pushl  -0x14(%ebp)
 804a0b8:	ff 75 08             	pushl  0x8(%ebp)
 804a0bb:	e8 c0 f0 ff ff       	call   8049180 <write@plt>
 804a0c0:	83 c4 10             	add    $0x10,%esp
 804a0c3:	89 45 f0             	mov    %eax,-0x10(%ebp)
 804a0c6:	83 7d f0 00          	cmpl   $0x0,-0x10(%ebp)
 804a0ca:	7f 1c                	jg     804a0e8 <rio_writen+0x4d>
 804a0cc:	e8 ff f0 ff ff       	call   80491d0 <__errno_location@plt>
 804a0d1:	8b 00                	mov    (%eax),%eax
 804a0d3:	83 f8 04             	cmp    $0x4,%eax
 804a0d6:	75 09                	jne    804a0e1 <rio_writen+0x46>
 804a0d8:	c7 45 f0 00 00 00 00 	movl   $0x0,-0x10(%ebp)
 804a0df:	eb 07                	jmp    804a0e8 <rio_writen+0x4d>
 804a0e1:	b8 ff ff ff ff       	mov    $0xffffffff,%eax
 804a0e6:	eb 15                	jmp    804a0fd <rio_writen+0x62>
 804a0e8:	8b 45 f0             	mov    -0x10(%ebp),%eax
 804a0eb:	29 45 f4             	sub    %eax,-0xc(%ebp)
 804a0ee:	8b 45 f0             	mov    -0x10(%ebp),%eax
 804a0f1:	01 45 ec             	add    %eax,-0x14(%ebp)
 804a0f4:	83 7d f4 00          	cmpl   $0x0,-0xc(%ebp)
 804a0f8:	75 b5                	jne    804a0af <rio_writen+0x14>
 804a0fa:	8b 45 10             	mov    0x10(%ebp),%eax
 804a0fd:	c9                   	leave  
 804a0fe:	c3                   	ret    

0804a0ff <urlencode>:
 804a0ff:	55                   	push   %ebp
 804a100:	89 e5                	mov    %esp,%ebp
 804a102:	83 ec 18             	sub    $0x18,%esp
 804a105:	83 ec 0c             	sub    $0xc,%esp
 804a108:	ff 75 08             	pushl  0x8(%ebp)
 804a10b:	e8 50 f0 ff ff       	call   8049160 <strlen@plt>
 804a110:	83 c4 10             	add    $0x10,%esp
 804a113:	89 45 f4             	mov    %eax,-0xc(%ebp)
 804a116:	e9 0e 01 00 00       	jmp    804a229 <urlencode+0x12a>
 804a11b:	8b 45 08             	mov    0x8(%ebp),%eax
 804a11e:	0f b6 00             	movzbl (%eax),%eax
 804a121:	3c 2a                	cmp    $0x2a,%al
 804a123:	74 5a                	je     804a17f <urlencode+0x80>
 804a125:	8b 45 08             	mov    0x8(%ebp),%eax
 804a128:	0f b6 00             	movzbl (%eax),%eax
 804a12b:	3c 2d                	cmp    $0x2d,%al
 804a12d:	74 50                	je     804a17f <urlencode+0x80>
 804a12f:	8b 45 08             	mov    0x8(%ebp),%eax
 804a132:	0f b6 00             	movzbl (%eax),%eax
 804a135:	3c 2e                	cmp    $0x2e,%al
 804a137:	74 46                	je     804a17f <urlencode+0x80>
 804a139:	8b 45 08             	mov    0x8(%ebp),%eax
 804a13c:	0f b6 00             	movzbl (%eax),%eax
 804a13f:	3c 5f                	cmp    $0x5f,%al
 804a141:	74 3c                	je     804a17f <urlencode+0x80>
 804a143:	8b 45 08             	mov    0x8(%ebp),%eax
 804a146:	0f b6 00             	movzbl (%eax),%eax
 804a149:	3c 2f                	cmp    $0x2f,%al
 804a14b:	76 0a                	jbe    804a157 <urlencode+0x58>
 804a14d:	8b 45 08             	mov    0x8(%ebp),%eax
 804a150:	0f b6 00             	movzbl (%eax),%eax
 804a153:	3c 39                	cmp    $0x39,%al
 804a155:	76 28                	jbe    804a17f <urlencode+0x80>
 804a157:	8b 45 08             	mov    0x8(%ebp),%eax
 804a15a:	0f b6 00             	movzbl (%eax),%eax
 804a15d:	3c 40                	cmp    $0x40,%al
 804a15f:	76 0a                	jbe    804a16b <urlencode+0x6c>
 804a161:	8b 45 08             	mov    0x8(%ebp),%eax
 804a164:	0f b6 00             	movzbl (%eax),%eax
 804a167:	3c 5a                	cmp    $0x5a,%al
 804a169:	76 14                	jbe    804a17f <urlencode+0x80>
 804a16b:	8b 45 08             	mov    0x8(%ebp),%eax
 804a16e:	0f b6 00             	movzbl (%eax),%eax
 804a171:	3c 60                	cmp    $0x60,%al
 804a173:	76 20                	jbe    804a195 <urlencode+0x96>
 804a175:	8b 45 08             	mov    0x8(%ebp),%eax
 804a178:	0f b6 00             	movzbl (%eax),%eax
 804a17b:	3c 7a                	cmp    $0x7a,%al
 804a17d:	77 16                	ja     804a195 <urlencode+0x96>
 804a17f:	8b 45 0c             	mov    0xc(%ebp),%eax
 804a182:	8d 50 01             	lea    0x1(%eax),%edx
 804a185:	89 55 0c             	mov    %edx,0xc(%ebp)
 804a188:	8b 55 08             	mov    0x8(%ebp),%edx
 804a18b:	0f b6 12             	movzbl (%edx),%edx
 804a18e:	88 10                	mov    %dl,(%eax)
 804a190:	e9 90 00 00 00       	jmp    804a225 <urlencode+0x126>
 804a195:	8b 45 08             	mov    0x8(%ebp),%eax
 804a198:	0f b6 00             	movzbl (%eax),%eax
 804a19b:	3c 20                	cmp    $0x20,%al
 804a19d:	75 0e                	jne    804a1ad <urlencode+0xae>
 804a19f:	8b 45 0c             	mov    0xc(%ebp),%eax
 804a1a2:	8d 50 01             	lea    0x1(%eax),%edx
 804a1a5:	89 55 0c             	mov    %edx,0xc(%ebp)
 804a1a8:	c6 00 2b             	movb   $0x2b,(%eax)
 804a1ab:	eb 78                	jmp    804a225 <urlencode+0x126>
 804a1ad:	8b 45 08             	mov    0x8(%ebp),%eax
 804a1b0:	0f b6 00             	movzbl (%eax),%eax
 804a1b3:	3c 1f                	cmp    $0x1f,%al
 804a1b5:	76 0a                	jbe    804a1c1 <urlencode+0xc2>
 804a1b7:	8b 45 08             	mov    0x8(%ebp),%eax
 804a1ba:	0f b6 00             	movzbl (%eax),%eax
 804a1bd:	84 c0                	test   %al,%al
 804a1bf:	79 0a                	jns    804a1cb <urlencode+0xcc>
 804a1c1:	8b 45 08             	mov    0x8(%ebp),%eax
 804a1c4:	0f b6 00             	movzbl (%eax),%eax
 804a1c7:	3c 09                	cmp    $0x9,%al
 804a1c9:	75 53                	jne    804a21e <urlencode+0x11f>
 804a1cb:	8b 45 08             	mov    0x8(%ebp),%eax
 804a1ce:	0f b6 00             	movzbl (%eax),%eax
 804a1d1:	0f b6 c0             	movzbl %al,%eax
 804a1d4:	83 ec 04             	sub    $0x4,%esp
 804a1d7:	50                   	push   %eax
 804a1d8:	68 f8 b5 04 08       	push   $0x804b5f8
 804a1dd:	8d 45 ec             	lea    -0x14(%ebp),%eax
 804a1e0:	50                   	push   %eax
 804a1e1:	e8 1a f0 ff ff       	call   8049200 <sprintf@plt>
 804a1e6:	83 c4 10             	add    $0x10,%esp
 804a1e9:	0f b6 4d ec          	movzbl -0x14(%ebp),%ecx
 804a1ed:	8b 45 0c             	mov    0xc(%ebp),%eax
 804a1f0:	8d 50 01             	lea    0x1(%eax),%edx
 804a1f3:	89 55 0c             	mov    %edx,0xc(%ebp)
 804a1f6:	89 ca                	mov    %ecx,%edx
 804a1f8:	88 10                	mov    %dl,(%eax)
 804a1fa:	0f b6 4d ed          	movzbl -0x13(%ebp),%ecx
 804a1fe:	8b 45 0c             	mov    0xc(%ebp),%eax
 804a201:	8d 50 01             	lea    0x1(%eax),%edx
 804a204:	89 55 0c             	mov    %edx,0xc(%ebp)
 804a207:	89 ca                	mov    %ecx,%edx
 804a209:	88 10                	mov    %dl,(%eax)
 804a20b:	0f b6 4d ee          	movzbl -0x12(%ebp),%ecx
 804a20f:	8b 45 0c             	mov    0xc(%ebp),%eax
 804a212:	8d 50 01             	lea    0x1(%eax),%edx
 804a215:	89 55 0c             	mov    %edx,0xc(%ebp)
 804a218:	89 ca                	mov    %ecx,%edx
 804a21a:	88 10                	mov    %dl,(%eax)
 804a21c:	eb 07                	jmp    804a225 <urlencode+0x126>
 804a21e:	b8 ff ff ff ff       	mov    $0xffffffff,%eax
 804a223:	eb 1a                	jmp    804a23f <urlencode+0x140>
 804a225:	83 45 08 01          	addl   $0x1,0x8(%ebp)
 804a229:	8b 45 f4             	mov    -0xc(%ebp),%eax
 804a22c:	8d 50 ff             	lea    -0x1(%eax),%edx
 804a22f:	89 55 f4             	mov    %edx,-0xc(%ebp)
 804a232:	85 c0                	test   %eax,%eax
 804a234:	0f 85 e1 fe ff ff    	jne    804a11b <urlencode+0x1c>
 804a23a:	b8 00 00 00 00       	mov    $0x0,%eax
 804a23f:	c9                   	leave  
 804a240:	c3                   	ret    

0804a241 <submitr>:
 804a241:	55                   	push   %ebp
 804a242:	89 e5                	mov    %esp,%ebp
 804a244:	57                   	push   %edi
 804a245:	56                   	push   %esi
 804a246:	53                   	push   %ebx
 804a247:	81 ec 3c a0 00 00    	sub    $0xa03c,%esp
 804a24d:	c7 85 b8 7f ff ff 00 	movl   $0x0,-0x8048(%ebp)
 804a254:	00 00 00 
 804a257:	83 ec 04             	sub    $0x4,%esp
 804a25a:	6a 00                	push   $0x0
 804a25c:	6a 01                	push   $0x1
 804a25e:	6a 02                	push   $0x2
 804a260:	e8 ab ef ff ff       	call   8049210 <socket@plt>
 804a265:	83 c4 10             	add    $0x10,%esp
 804a268:	89 45 e4             	mov    %eax,-0x1c(%ebp)
 804a26b:	83 7d e4 00          	cmpl   $0x0,-0x1c(%ebp)
 804a26f:	79 51                	jns    804a2c2 <submitr+0x81>
 804a271:	8b 45 20             	mov    0x20(%ebp),%eax
 804a274:	c7 00 45 72 72 6f    	movl   $0x6f727245,(%eax)
 804a27a:	c7 40 04 72 3a 20 43 	movl   $0x43203a72,0x4(%eax)
 804a281:	c7 40 08 6c 69 65 6e 	movl   $0x6e65696c,0x8(%eax)
 804a288:	c7 40 0c 74 20 75 6e 	movl   $0x6e752074,0xc(%eax)
 804a28f:	c7 40 10 61 62 6c 65 	movl   $0x656c6261,0x10(%eax)
 804a296:	c7 40 14 20 74 6f 20 	movl   $0x206f7420,0x14(%eax)
 804a29d:	c7 40 18 63 72 65 61 	movl   $0x61657263,0x18(%eax)
 804a2a4:	c7 40 1c 74 65 20 73 	movl   $0x73206574,0x1c(%eax)
 804a2ab:	c7 40 20 6f 63 6b 65 	movl   $0x656b636f,0x20(%eax)
 804a2b2:	66 c7 40 24 74 00    	movw   $0x74,0x24(%eax)
 804a2b8:	b8 ff ff ff ff       	mov    $0xffffffff,%eax
 804a2bd:	e9 b0 05 00 00       	jmp    804a872 <submitr+0x631>
 804a2c2:	83 ec 0c             	sub    $0xc,%esp
 804a2c5:	ff 75 08             	pushl  0x8(%ebp)
 804a2c8:	e8 73 ef ff ff       	call   8049240 <gethostbyname@plt>
 804a2cd:	83 c4 10             	add    $0x10,%esp
 804a2d0:	89 45 e0             	mov    %eax,-0x20(%ebp)
 804a2d3:	83 7d e0 00          	cmpl   $0x0,-0x20(%ebp)
 804a2d7:	75 2e                	jne    804a307 <submitr+0xc6>
 804a2d9:	83 ec 04             	sub    $0x4,%esp
 804a2dc:	ff 75 08             	pushl  0x8(%ebp)
 804a2df:	68 00 b6 04 08       	push   $0x804b600
 804a2e4:	ff 75 20             	pushl  0x20(%ebp)
 804a2e7:	e8 14 ef ff ff       	call   8049200 <sprintf@plt>
 804a2ec:	83 c4 10             	add    $0x10,%esp
 804a2ef:	83 ec 0c             	sub    $0xc,%esp
 804a2f2:	ff 75 e4             	pushl  -0x1c(%ebp)
 804a2f5:	e8 66 ef ff ff       	call   8049260 <close@plt>
 804a2fa:	83 c4 10             	add    $0x10,%esp
 804a2fd:	b8 ff ff ff ff       	mov    $0xffffffff,%eax
 804a302:	e9 6b 05 00 00       	jmp    804a872 <submitr+0x631>
 804a307:	8d 45 c8             	lea    -0x38(%ebp),%eax
 804a30a:	c7 00 00 00 00 00    	movl   $0x0,(%eax)
 804a310:	c7 40 04 00 00 00 00 	movl   $0x0,0x4(%eax)
 804a317:	c7 40 08 00 00 00 00 	movl   $0x0,0x8(%eax)
 804a31e:	c7 40 0c 00 00 00 00 	movl   $0x0,0xc(%eax)
 804a325:	66 c7 45 c8 02 00    	movw   $0x2,-0x38(%ebp)
 804a32b:	8b 45 e0             	mov    -0x20(%ebp),%eax
 804a32e:	8b 40 0c             	mov    0xc(%eax),%eax
 804a331:	89 c2                	mov    %eax,%edx
 804a333:	8b 45 e0             	mov    -0x20(%ebp),%eax
 804a336:	8b 40 10             	mov    0x10(%eax),%eax
 804a339:	8b 00                	mov    (%eax),%eax
 804a33b:	83 ec 04             	sub    $0x4,%esp
 804a33e:	52                   	push   %edx
 804a33f:	50                   	push   %eax
 804a340:	8d 45 c8             	lea    -0x38(%ebp),%eax
 804a343:	83 c0 04             	add    $0x4,%eax
 804a346:	50                   	push   %eax
 804a347:	e8 24 ed ff ff       	call   8049070 <memmove@plt>
 804a34c:	83 c4 10             	add    $0x10,%esp
 804a34f:	8b 45 0c             	mov    0xc(%ebp),%eax
 804a352:	0f b7 c0             	movzwl %ax,%eax
 804a355:	83 ec 0c             	sub    $0xc,%esp
 804a358:	50                   	push   %eax
 804a359:	e8 72 ed ff ff       	call   80490d0 <htons@plt>
 804a35e:	83 c4 10             	add    $0x10,%esp
 804a361:	66 89 45 ca          	mov    %ax,-0x36(%ebp)
 804a365:	83 ec 04             	sub    $0x4,%esp
 804a368:	6a 10                	push   $0x10
 804a36a:	8d 45 c8             	lea    -0x38(%ebp),%eax
 804a36d:	50                   	push   %eax
 804a36e:	ff 75 e4             	pushl  -0x1c(%ebp)
 804a371:	e8 da ee ff ff       	call   8049250 <connect@plt>
 804a376:	83 c4 10             	add    $0x10,%esp
 804a379:	85 c0                	test   %eax,%eax
 804a37b:	79 2e                	jns    804a3ab <submitr+0x16a>
 804a37d:	83 ec 04             	sub    $0x4,%esp
 804a380:	ff 75 08             	pushl  0x8(%ebp)
 804a383:	68 2c b6 04 08       	push   $0x804b62c
 804a388:	ff 75 20             	pushl  0x20(%ebp)
 804a38b:	e8 70 ee ff ff       	call   8049200 <sprintf@plt>
 804a390:	83 c4 10             	add    $0x10,%esp
 804a393:	83 ec 0c             	sub    $0xc,%esp
 804a396:	ff 75 e4             	pushl  -0x1c(%ebp)
 804a399:	e8 c2 ee ff ff       	call   8049260 <close@plt>
 804a39e:	83 c4 10             	add    $0x10,%esp
 804a3a1:	b8 ff ff ff ff       	mov    $0xffffffff,%eax
 804a3a6:	e9 c7 04 00 00       	jmp    804a872 <submitr+0x631>
 804a3ab:	83 ec 0c             	sub    $0xc,%esp
 804a3ae:	ff 75 1c             	pushl  0x1c(%ebp)
 804a3b1:	e8 aa ed ff ff       	call   8049160 <strlen@plt>
 804a3b6:	83 c4 10             	add    $0x10,%esp
 804a3b9:	89 45 dc             	mov    %eax,-0x24(%ebp)
 804a3bc:	83 ec 0c             	sub    $0xc,%esp
 804a3bf:	ff 75 10             	pushl  0x10(%ebp)
 804a3c2:	e8 99 ed ff ff       	call   8049160 <strlen@plt>
 804a3c7:	83 c4 10             	add    $0x10,%esp
 804a3ca:	89 c3                	mov    %eax,%ebx
 804a3cc:	83 ec 0c             	sub    $0xc,%esp
 804a3cf:	ff 75 14             	pushl  0x14(%ebp)
 804a3d2:	e8 89 ed ff ff       	call   8049160 <strlen@plt>
 804a3d7:	83 c4 10             	add    $0x10,%esp
 804a3da:	01 c3                	add    %eax,%ebx
 804a3dc:	83 ec 0c             	sub    $0xc,%esp
 804a3df:	ff 75 18             	pushl  0x18(%ebp)
 804a3e2:	e8 79 ed ff ff       	call   8049160 <strlen@plt>
 804a3e7:	83 c4 10             	add    $0x10,%esp
 804a3ea:	8d 0c 03             	lea    (%ebx,%eax,1),%ecx
 804a3ed:	8b 55 dc             	mov    -0x24(%ebp),%edx
 804a3f0:	89 d0                	mov    %edx,%eax
 804a3f2:	01 c0                	add    %eax,%eax
 804a3f4:	01 d0                	add    %edx,%eax
 804a3f6:	01 c8                	add    %ecx,%eax
 804a3f8:	83 e8 80             	sub    $0xffffff80,%eax
 804a3fb:	89 45 d8             	mov    %eax,-0x28(%ebp)
 804a3fe:	81 7d d8 00 20 00 00 	cmpl   $0x2000,-0x28(%ebp)
 804a405:	76 7c                	jbe    804a483 <submitr+0x242>
 804a407:	8b 45 20             	mov    0x20(%ebp),%eax
 804a40a:	c7 00 45 72 72 6f    	movl   $0x6f727245,(%eax)
 804a410:	c7 40 04 72 3a 20 52 	movl   $0x52203a72,0x4(%eax)
 804a417:	c7 40 08 65 73 75 6c 	movl   $0x6c757365,0x8(%eax)
 804a41e:	c7 40 0c 74 20 73 74 	movl   $0x74732074,0xc(%eax)
 804a425:	c7 40 10 72 69 6e 67 	movl   $0x676e6972,0x10(%eax)
 804a42c:	c7 40 14 20 74 6f 6f 	movl   $0x6f6f7420,0x14(%eax)
 804a433:	c7 40 18 20 6c 61 72 	movl   $0x72616c20,0x18(%eax)
 804a43a:	c7 40 1c 67 65 2e 20 	movl   $0x202e6567,0x1c(%eax)
 804a441:	c7 40 20 49 6e 63 72 	movl   $0x72636e49,0x20(%eax)
 804a448:	c7 40 24 65 61 73 65 	movl   $0x65736165,0x24(%eax)
 804a44f:	c7 40 28 20 53 55 42 	movl   $0x42555320,0x28(%eax)
 804a456:	c7 40 2c 4d 49 54 52 	movl   $0x5254494d,0x2c(%eax)
 804a45d:	c7 40 30 5f 4d 41 58 	movl   $0x58414d5f,0x30(%eax)
 804a464:	c7 40 34 42 55 46 00 	movl   $0x465542,0x34(%eax)
 804a46b:	83 ec 0c             	sub    $0xc,%esp
 804a46e:	ff 75 e4             	pushl  -0x1c(%ebp)
 804a471:	e8 ea ed ff ff       	call   8049260 <close@plt>
 804a476:	83 c4 10             	add    $0x10,%esp
 804a479:	b8 ff ff ff ff       	mov    $0xffffffff,%eax
 804a47e:	e9 ef 03 00 00       	jmp    804a872 <submitr+0x631>
 804a483:	8d 85 bc 9f ff ff    	lea    -0x6044(%ebp),%eax
 804a489:	89 c3                	mov    %eax,%ebx
 804a48b:	b8 00 00 00 00       	mov    $0x0,%eax
 804a490:	ba 00 08 00 00       	mov    $0x800,%edx
 804a495:	89 df                	mov    %ebx,%edi
 804a497:	89 d1                	mov    %edx,%ecx
 804a499:	f3 ab                	rep stos %eax,%es:(%edi)
 804a49b:	83 ec 08             	sub    $0x8,%esp
 804a49e:	8d 85 bc 9f ff ff    	lea    -0x6044(%ebp),%eax
 804a4a4:	50                   	push   %eax
 804a4a5:	ff 75 1c             	pushl  0x1c(%ebp)
 804a4a8:	e8 52 fc ff ff       	call   804a0ff <urlencode>
 804a4ad:	83 c4 10             	add    $0x10,%esp
 804a4b0:	85 c0                	test   %eax,%eax
 804a4b2:	79 4b                	jns    804a4ff <submitr+0x2be>
 804a4b4:	8b 45 20             	mov    0x20(%ebp),%eax
 804a4b7:	bb 54 b6 04 08       	mov    $0x804b654,%ebx
 804a4bc:	ba 43 00 00 00       	mov    $0x43,%edx
 804a4c1:	8b 0b                	mov    (%ebx),%ecx
 804a4c3:	89 08                	mov    %ecx,(%eax)
 804a4c5:	8b 4c 13 fc          	mov    -0x4(%ebx,%edx,1),%ecx
 804a4c9:	89 4c 10 fc          	mov    %ecx,-0x4(%eax,%edx,1)
 804a4cd:	8d 78 04             	lea    0x4(%eax),%edi
 804a4d0:	83 e7 fc             	and    $0xfffffffc,%edi
 804a4d3:	29 f8                	sub    %edi,%eax
 804a4d5:	29 c3                	sub    %eax,%ebx
 804a4d7:	01 c2                	add    %eax,%edx
 804a4d9:	83 e2 fc             	and    $0xfffffffc,%edx
 804a4dc:	89 d0                	mov    %edx,%eax
 804a4de:	c1 e8 02             	shr    $0x2,%eax
 804a4e1:	89 de                	mov    %ebx,%esi
 804a4e3:	89 c1                	mov    %eax,%ecx
 804a4e5:	f3 a5                	rep movsl %ds:(%esi),%es:(%edi)
 804a4e7:	83 ec 0c             	sub    $0xc,%esp
 804a4ea:	ff 75 e4             	pushl  -0x1c(%ebp)
 804a4ed:	e8 6e ed ff ff       	call   8049260 <close@plt>
 804a4f2:	83 c4 10             	add    $0x10,%esp
 804a4f5:	b8 ff ff ff ff       	mov    $0xffffffff,%eax
 804a4fa:	e9 73 03 00 00       	jmp    804a872 <submitr+0x631>
 804a4ff:	83 ec 08             	sub    $0x8,%esp
 804a502:	8d 85 bc 9f ff ff    	lea    -0x6044(%ebp),%eax
 804a508:	50                   	push   %eax
 804a509:	ff 75 18             	pushl  0x18(%ebp)
 804a50c:	ff 75 14             	pushl  0x14(%ebp)
 804a50f:	ff 75 10             	pushl  0x10(%ebp)
 804a512:	68 98 b6 04 08       	push   $0x804b698
 804a517:	8d 85 bc bf ff ff    	lea    -0x4044(%ebp),%eax
 804a51d:	50                   	push   %eax
 804a51e:	e8 dd ec ff ff       	call   8049200 <sprintf@plt>
 804a523:	83 c4 20             	add    $0x20,%esp
 804a526:	83 ec 0c             	sub    $0xc,%esp
 804a529:	8d 85 bc bf ff ff    	lea    -0x4044(%ebp),%eax
 804a52f:	50                   	push   %eax
 804a530:	e8 2b ec ff ff       	call   8049160 <strlen@plt>
 804a535:	83 c4 10             	add    $0x10,%esp
 804a538:	83 ec 04             	sub    $0x4,%esp
 804a53b:	50                   	push   %eax
 804a53c:	8d 85 bc bf ff ff    	lea    -0x4044(%ebp),%eax
 804a542:	50                   	push   %eax
 804a543:	ff 75 e4             	pushl  -0x1c(%ebp)
 804a546:	e8 50 fb ff ff       	call   804a09b <rio_writen>
 804a54b:	83 c4 10             	add    $0x10,%esp
 804a54e:	85 c0                	test   %eax,%eax
 804a550:	79 67                	jns    804a5b9 <submitr+0x378>
 804a552:	8b 45 20             	mov    0x20(%ebp),%eax
 804a555:	c7 00 45 72 72 6f    	movl   $0x6f727245,(%eax)
 804a55b:	c7 40 04 72 3a 20 43 	movl   $0x43203a72,0x4(%eax)
 804a562:	c7 40 08 6c 69 65 6e 	movl   $0x6e65696c,0x8(%eax)
 804a569:	c7 40 0c 74 20 75 6e 	movl   $0x6e752074,0xc(%eax)
 804a570:	c7 40 10 61 62 6c 65 	movl   $0x656c6261,0x10(%eax)
 804a577:	c7 40 14 20 74 6f 20 	movl   $0x206f7420,0x14(%eax)
 804a57e:	c7 40 18 77 72 69 74 	movl   $0x74697277,0x18(%eax)
 804a585:	c7 40 1c 65 20 74 6f 	movl   $0x6f742065,0x1c(%eax)
 804a58c:	c7 40 20 20 74 68 65 	movl   $0x65687420,0x20(%eax)
 804a593:	c7 40 24 20 73 65 72 	movl   $0x72657320,0x24(%eax)
 804a59a:	c7 40 28 76 65 72 00 	movl   $0x726576,0x28(%eax)
 804a5a1:	83 ec 0c             	sub    $0xc,%esp
 804a5a4:	ff 75 e4             	pushl  -0x1c(%ebp)
 804a5a7:	e8 b4 ec ff ff       	call   8049260 <close@plt>
 804a5ac:	83 c4 10             	add    $0x10,%esp
 804a5af:	b8 ff ff ff ff       	mov    $0xffffffff,%eax
 804a5b4:	e9 b9 02 00 00       	jmp    804a872 <submitr+0x631>
 804a5b9:	83 ec 08             	sub    $0x8,%esp
 804a5bc:	ff 75 e4             	pushl  -0x1c(%ebp)
 804a5bf:	8d 85 bc df ff ff    	lea    -0x2044(%ebp),%eax
 804a5c5:	50                   	push   %eax
 804a5c6:	e8 62 f9 ff ff       	call   8049f2d <rio_readinitb>
 804a5cb:	83 c4 10             	add    $0x10,%esp
 804a5ce:	83 ec 04             	sub    $0x4,%esp
 804a5d1:	68 00 20 00 00       	push   $0x2000
 804a5d6:	8d 85 bc bf ff ff    	lea    -0x4044(%ebp),%eax
 804a5dc:	50                   	push   %eax
 804a5dd:	8d 85 bc df ff ff    	lea    -0x2044(%ebp),%eax
 804a5e3:	50                   	push   %eax
 804a5e4:	e8 33 fa ff ff       	call   804a01c <rio_readlineb>
 804a5e9:	83 c4 10             	add    $0x10,%esp
 804a5ec:	85 c0                	test   %eax,%eax
 804a5ee:	7f 7b                	jg     804a66b <submitr+0x42a>
 804a5f0:	8b 45 20             	mov    0x20(%ebp),%eax
 804a5f3:	c7 00 45 72 72 6f    	movl   $0x6f727245,(%eax)
 804a5f9:	c7 40 04 72 3a 20 43 	movl   $0x43203a72,0x4(%eax)
 804a600:	c7 40 08 6c 69 65 6e 	movl   $0x6e65696c,0x8(%eax)
 804a607:	c7 40 0c 74 20 75 6e 	movl   $0x6e752074,0xc(%eax)
 804a60e:	c7 40 10 61 62 6c 65 	movl   $0x656c6261,0x10(%eax)
 804a615:	c7 40 14 20 74 6f 20 	movl   $0x206f7420,0x14(%eax)
 804a61c:	c7 40 18 72 65 61 64 	movl   $0x64616572,0x18(%eax)
 804a623:	c7 40 1c 20 66 69 72 	movl   $0x72696620,0x1c(%eax)
 804a62a:	c7 40 20 73 74 20 68 	movl   $0x68207473,0x20(%eax)
 804a631:	c7 40 24 65 61 64 65 	movl   $0x65646165,0x24(%eax)
 804a638:	c7 40 28 72 20 66 72 	movl   $0x72662072,0x28(%eax)
 804a63f:	c7 40 2c 6f 6d 20 73 	movl   $0x73206d6f,0x2c(%eax)
 804a646:	c7 40 30 65 72 76 65 	movl   $0x65767265,0x30(%eax)
 804a64d:	66 c7 40 34 72 00    	movw   $0x72,0x34(%eax)
 804a653:	83 ec 0c             	sub    $0xc,%esp
 804a656:	ff 75 e4             	pushl  -0x1c(%ebp)
 804a659:	e8 02 ec ff ff       	call   8049260 <close@plt>
 804a65e:	83 c4 10             	add    $0x10,%esp
 804a661:	b8 ff ff ff ff       	mov    $0xffffffff,%eax
 804a666:	e9 07 02 00 00       	jmp    804a872 <submitr+0x631>
 804a66b:	83 ec 0c             	sub    $0xc,%esp
 804a66e:	8d 85 b8 5f ff ff    	lea    -0xa048(%ebp),%eax
 804a674:	50                   	push   %eax
 804a675:	8d 85 b8 7f ff ff    	lea    -0x8048(%ebp),%eax
 804a67b:	50                   	push   %eax
 804a67c:	8d 85 bc 7f ff ff    	lea    -0x8044(%ebp),%eax
 804a682:	50                   	push   %eax
 804a683:	68 e2 b6 04 08       	push   $0x804b6e2
 804a688:	8d 85 bc bf ff ff    	lea    -0x4044(%ebp),%eax
 804a68e:	50                   	push   %eax
 804a68f:	e8 1c eb ff ff       	call   80491b0 <__isoc99_sscanf@plt>
 804a694:	83 c4 20             	add    $0x20,%esp
 804a697:	8b 85 b8 7f ff ff    	mov    -0x8048(%ebp),%eax
 804a69d:	3d c8 00 00 00       	cmp    $0xc8,%eax
 804a6a2:	0f 84 ca 00 00 00    	je     804a772 <submitr+0x531>
 804a6a8:	8b 85 b8 7f ff ff    	mov    -0x8048(%ebp),%eax
 804a6ae:	8d 95 b8 5f ff ff    	lea    -0xa048(%ebp),%edx
 804a6b4:	52                   	push   %edx
 804a6b5:	50                   	push   %eax
 804a6b6:	68 f4 b6 04 08       	push   $0x804b6f4
 804a6bb:	ff 75 20             	pushl  0x20(%ebp)
 804a6be:	e8 3d eb ff ff       	call   8049200 <sprintf@plt>
 804a6c3:	83 c4 10             	add    $0x10,%esp
 804a6c6:	83 ec 0c             	sub    $0xc,%esp
 804a6c9:	ff 75 e4             	pushl  -0x1c(%ebp)
 804a6cc:	e8 8f eb ff ff       	call   8049260 <close@plt>
 804a6d1:	83 c4 10             	add    $0x10,%esp
 804a6d4:	b8 ff ff ff ff       	mov    $0xffffffff,%eax
 804a6d9:	e9 94 01 00 00       	jmp    804a872 <submitr+0x631>
 804a6de:	83 ec 04             	sub    $0x4,%esp
 804a6e1:	68 00 20 00 00       	push   $0x2000
 804a6e6:	8d 85 bc bf ff ff    	lea    -0x4044(%ebp),%eax
 804a6ec:	50                   	push   %eax
 804a6ed:	8d 85 bc df ff ff    	lea    -0x2044(%ebp),%eax
 804a6f3:	50                   	push   %eax
 804a6f4:	e8 23 f9 ff ff       	call   804a01c <rio_readlineb>
 804a6f9:	83 c4 10             	add    $0x10,%esp
 804a6fc:	85 c0                	test   %eax,%eax
 804a6fe:	7f 72                	jg     804a772 <submitr+0x531>
 804a700:	8b 45 20             	mov    0x20(%ebp),%eax
 804a703:	c7 00 45 72 72 6f    	movl   $0x6f727245,(%eax)
 804a709:	c7 40 04 72 3a 20 43 	movl   $0x43203a72,0x4(%eax)
 804a710:	c7 40 08 6c 69 65 6e 	movl   $0x6e65696c,0x8(%eax)
 804a717:	c7 40 0c 74 20 75 6e 	movl   $0x6e752074,0xc(%eax)
 804a71e:	c7 40 10 61 62 6c 65 	movl   $0x656c6261,0x10(%eax)
 804a725:	c7 40 14 20 74 6f 20 	movl   $0x206f7420,0x14(%eax)
 804a72c:	c7 40 18 72 65 61 64 	movl   $0x64616572,0x18(%eax)
 804a733:	c7 40 1c 20 68 65 61 	movl   $0x61656820,0x1c(%eax)
 804a73a:	c7 40 20 64 65 72 73 	movl   $0x73726564,0x20(%eax)
 804a741:	c7 40 24 20 66 72 6f 	movl   $0x6f726620,0x24(%eax)
 804a748:	c7 40 28 6d 20 73 65 	movl   $0x6573206d,0x28(%eax)
 804a74f:	c7 40 2c 72 76 65 72 	movl   $0x72657672,0x2c(%eax)
 804a756:	c6 40 30 00          	movb   $0x0,0x30(%eax)
 804a75a:	83 ec 0c             	sub    $0xc,%esp
 804a75d:	ff 75 e4             	pushl  -0x1c(%ebp)
 804a760:	e8 fb ea ff ff       	call   8049260 <close@plt>
 804a765:	83 c4 10             	add    $0x10,%esp
 804a768:	b8 ff ff ff ff       	mov    $0xffffffff,%eax
 804a76d:	e9 00 01 00 00       	jmp    804a872 <submitr+0x631>
 804a772:	83 ec 08             	sub    $0x8,%esp
 804a775:	68 21 b7 04 08       	push   $0x804b721
 804a77a:	8d 85 bc bf ff ff    	lea    -0x4044(%ebp),%eax
 804a780:	50                   	push   %eax
 804a781:	e8 aa e8 ff ff       	call   8049030 <strcmp@plt>
 804a786:	83 c4 10             	add    $0x10,%esp
 804a789:	85 c0                	test   %eax,%eax
 804a78b:	0f 85 4d ff ff ff    	jne    804a6de <submitr+0x49d>
 804a791:	83 ec 04             	sub    $0x4,%esp
 804a794:	68 00 20 00 00       	push   $0x2000
 804a799:	8d 85 bc bf ff ff    	lea    -0x4044(%ebp),%eax
 804a79f:	50                   	push   %eax
 804a7a0:	8d 85 bc df ff ff    	lea    -0x2044(%ebp),%eax
 804a7a6:	50                   	push   %eax
 804a7a7:	e8 70 f8 ff ff       	call   804a01c <rio_readlineb>
 804a7ac:	83 c4 10             	add    $0x10,%esp
 804a7af:	85 c0                	test   %eax,%eax
 804a7b1:	7f 79                	jg     804a82c <submitr+0x5eb>
 804a7b3:	8b 45 20             	mov    0x20(%ebp),%eax
 804a7b6:	c7 00 45 72 72 6f    	movl   $0x6f727245,(%eax)
 804a7bc:	c7 40 04 72 3a 20 43 	movl   $0x43203a72,0x4(%eax)
 804a7c3:	c7 40 08 6c 69 65 6e 	movl   $0x6e65696c,0x8(%eax)
 804a7ca:	c7 40 0c 74 20 75 6e 	movl   $0x6e752074,0xc(%eax)
 804a7d1:	c7 40 10 61 62 6c 65 	movl   $0x656c6261,0x10(%eax)
 804a7d8:	c7 40 14 20 74 6f 20 	movl   $0x206f7420,0x14(%eax)
 804a7df:	c7 40 18 72 65 61 64 	movl   $0x64616572,0x18(%eax)
 804a7e6:	c7 40 1c 20 73 74 61 	movl   $0x61747320,0x1c(%eax)
 804a7ed:	c7 40 20 74 75 73 20 	movl   $0x20737574,0x20(%eax)
 804a7f4:	c7 40 24 6d 65 73 73 	movl   $0x7373656d,0x24(%eax)
 804a7fb:	c7 40 28 61 67 65 20 	movl   $0x20656761,0x28(%eax)
 804a802:	c7 40 2c 66 72 6f 6d 	movl   $0x6d6f7266,0x2c(%eax)
 804a809:	c7 40 30 20 73 65 72 	movl   $0x72657320,0x30(%eax)
 804a810:	c7 40 34 76 65 72 00 	movl   $0x726576,0x34(%eax)
 804a817:	83 ec 0c             	sub    $0xc,%esp
 804a81a:	ff 75 e4             	pushl  -0x1c(%ebp)
 804a81d:	e8 3e ea ff ff       	call   8049260 <close@plt>
 804a822:	83 c4 10             	add    $0x10,%esp
 804a825:	b8 ff ff ff ff       	mov    $0xffffffff,%eax
 804a82a:	eb 46                	jmp    804a872 <submitr+0x631>
 804a82c:	83 ec 08             	sub    $0x8,%esp
 804a82f:	8d 85 bc bf ff ff    	lea    -0x4044(%ebp),%eax
 804a835:	50                   	push   %eax
 804a836:	ff 75 20             	pushl  0x20(%ebp)
 804a839:	e8 b2 e8 ff ff       	call   80490f0 <strcpy@plt>
 804a83e:	83 c4 10             	add    $0x10,%esp
 804a841:	83 ec 0c             	sub    $0xc,%esp
 804a844:	ff 75 e4             	pushl  -0x1c(%ebp)
 804a847:	e8 14 ea ff ff       	call   8049260 <close@plt>
 804a84c:	83 c4 10             	add    $0x10,%esp
 804a84f:	83 ec 08             	sub    $0x8,%esp
 804a852:	68 24 b7 04 08       	push   $0x804b724
 804a857:	ff 75 20             	pushl  0x20(%ebp)
 804a85a:	e8 d1 e7 ff ff       	call   8049030 <strcmp@plt>
 804a85f:	83 c4 10             	add    $0x10,%esp
 804a862:	85 c0                	test   %eax,%eax
 804a864:	75 07                	jne    804a86d <submitr+0x62c>
 804a866:	b8 00 00 00 00       	mov    $0x0,%eax
 804a86b:	eb 05                	jmp    804a872 <submitr+0x631>
 804a86d:	b8 ff ff ff ff       	mov    $0xffffffff,%eax
 804a872:	8d 65 f4             	lea    -0xc(%ebp),%esp
 804a875:	5b                   	pop    %ebx
 804a876:	5e                   	pop    %esi
 804a877:	5f                   	pop    %edi
 804a878:	5d                   	pop    %ebp
 804a879:	c3                   	ret    

0804a87a <init_timeout>:
 804a87a:	55                   	push   %ebp
 804a87b:	89 e5                	mov    %esp,%ebp
 804a87d:	83 ec 08             	sub    $0x8,%esp
 804a880:	83 7d 08 00          	cmpl   $0x0,0x8(%ebp)
 804a884:	74 30                	je     804a8b6 <init_timeout+0x3c>
 804a886:	83 7d 08 00          	cmpl   $0x0,0x8(%ebp)
 804a88a:	79 07                	jns    804a893 <init_timeout+0x19>
 804a88c:	c7 45 08 02 00 00 00 	movl   $0x2,0x8(%ebp)
 804a893:	83 ec 08             	sub    $0x8,%esp
 804a896:	68 0b 9f 04 08       	push   $0x8049f0b
 804a89b:	6a 0e                	push   $0xe
 804a89d:	e8 fe e7 ff ff       	call   80490a0 <signal@plt>
 804a8a2:	83 c4 10             	add    $0x10,%esp
 804a8a5:	8b 45 08             	mov    0x8(%ebp),%eax
 804a8a8:	83 ec 0c             	sub    $0xc,%esp
 804a8ab:	50                   	push   %eax
 804a8ac:	e8 0f e8 ff ff       	call   80490c0 <alarm@plt>
 804a8b1:	83 c4 10             	add    $0x10,%esp
 804a8b4:	eb 01                	jmp    804a8b7 <init_timeout+0x3d>
 804a8b6:	90                   	nop
 804a8b7:	c9                   	leave  
 804a8b8:	c3                   	ret    

0804a8b9 <init_driver>:
 804a8b9:	55                   	push   %ebp
 804a8ba:	89 e5                	mov    %esp,%ebp
 804a8bc:	83 ec 28             	sub    $0x28,%esp
 804a8bf:	c7 45 f4 27 b7 04 08 	movl   $0x804b727,-0xc(%ebp)
 804a8c6:	c7 45 f0 03 d9 00 00 	movl   $0xd903,-0x10(%ebp)
 804a8cd:	83 ec 08             	sub    $0x8,%esp
 804a8d0:	6a 01                	push   $0x1
 804a8d2:	6a 0d                	push   $0xd
 804a8d4:	e8 c7 e7 ff ff       	call   80490a0 <signal@plt>
 804a8d9:	83 c4 10             	add    $0x10,%esp
 804a8dc:	83 ec 08             	sub    $0x8,%esp
 804a8df:	6a 01                	push   $0x1
 804a8e1:	6a 1d                	push   $0x1d
 804a8e3:	e8 b8 e7 ff ff       	call   80490a0 <signal@plt>
 804a8e8:	83 c4 10             	add    $0x10,%esp
 804a8eb:	83 ec 08             	sub    $0x8,%esp
 804a8ee:	6a 01                	push   $0x1
 804a8f0:	6a 1d                	push   $0x1d
 804a8f2:	e8 a9 e7 ff ff       	call   80490a0 <signal@plt>
 804a8f7:	83 c4 10             	add    $0x10,%esp
 804a8fa:	83 ec 04             	sub    $0x4,%esp
 804a8fd:	6a 00                	push   $0x0
 804a8ff:	6a 01                	push   $0x1
 804a901:	6a 02                	push   $0x2
 804a903:	e8 08 e9 ff ff       	call   8049210 <socket@plt>
 804a908:	83 c4 10             	add    $0x10,%esp
 804a90b:	89 45 ec             	mov    %eax,-0x14(%ebp)
 804a90e:	83 7d ec 00          	cmpl   $0x0,-0x14(%ebp)
 804a912:	79 51                	jns    804a965 <init_driver+0xac>
 804a914:	8b 45 08             	mov    0x8(%ebp),%eax
 804a917:	c7 00 45 72 72 6f    	movl   $0x6f727245,(%eax)
 804a91d:	c7 40 04 72 3a 20 43 	movl   $0x43203a72,0x4(%eax)
 804a924:	c7 40 08 6c 69 65 6e 	movl   $0x6e65696c,0x8(%eax)
 804a92b:	c7 40 0c 74 20 75 6e 	movl   $0x6e752074,0xc(%eax)
 804a932:	c7 40 10 61 62 6c 65 	movl   $0x656c6261,0x10(%eax)
 804a939:	c7 40 14 20 74 6f 20 	movl   $0x206f7420,0x14(%eax)
 804a940:	c7 40 18 63 72 65 61 	movl   $0x61657263,0x18(%eax)
 804a947:	c7 40 1c 74 65 20 73 	movl   $0x73206574,0x1c(%eax)
 804a94e:	c7 40 20 6f 63 6b 65 	movl   $0x656b636f,0x20(%eax)
 804a955:	66 c7 40 24 74 00    	movw   $0x74,0x24(%eax)
 804a95b:	b8 ff ff ff ff       	mov    $0xffffffff,%eax
 804a960:	e9 05 01 00 00       	jmp    804aa6a <init_driver+0x1b1>
 804a965:	83 ec 0c             	sub    $0xc,%esp
 804a968:	ff 75 f4             	pushl  -0xc(%ebp)
 804a96b:	e8 d0 e8 ff ff       	call   8049240 <gethostbyname@plt>
 804a970:	83 c4 10             	add    $0x10,%esp
 804a973:	89 45 e8             	mov    %eax,-0x18(%ebp)
 804a976:	83 7d e8 00          	cmpl   $0x0,-0x18(%ebp)
 804a97a:	75 2e                	jne    804a9aa <init_driver+0xf1>
 804a97c:	83 ec 04             	sub    $0x4,%esp
 804a97f:	ff 75 f4             	pushl  -0xc(%ebp)
 804a982:	68 00 b6 04 08       	push   $0x804b600
 804a987:	ff 75 08             	pushl  0x8(%ebp)
 804a98a:	e8 71 e8 ff ff       	call   8049200 <sprintf@plt>
 804a98f:	83 c4 10             	add    $0x10,%esp
 804a992:	83 ec 0c             	sub    $0xc,%esp
 804a995:	ff 75 ec             	pushl  -0x14(%ebp)
 804a998:	e8 c3 e8 ff ff       	call   8049260 <close@plt>
 804a99d:	83 c4 10             	add    $0x10,%esp
 804a9a0:	b8 ff ff ff ff       	mov    $0xffffffff,%eax
 804a9a5:	e9 c0 00 00 00       	jmp    804aa6a <init_driver+0x1b1>
 804a9aa:	8d 45 d8             	lea    -0x28(%ebp),%eax
 804a9ad:	c7 00 00 00 00 00    	movl   $0x0,(%eax)
 804a9b3:	c7 40 04 00 00 00 00 	movl   $0x0,0x4(%eax)
 804a9ba:	c7 40 08 00 00 00 00 	movl   $0x0,0x8(%eax)
 804a9c1:	c7 40 0c 00 00 00 00 	movl   $0x0,0xc(%eax)
 804a9c8:	66 c7 45 d8 02 00    	movw   $0x2,-0x28(%ebp)
 804a9ce:	8b 45 e8             	mov    -0x18(%ebp),%eax
 804a9d1:	8b 40 0c             	mov    0xc(%eax),%eax
 804a9d4:	89 c2                	mov    %eax,%edx
 804a9d6:	8b 45 e8             	mov    -0x18(%ebp),%eax
 804a9d9:	8b 40 10             	mov    0x10(%eax),%eax
 804a9dc:	8b 00                	mov    (%eax),%eax
 804a9de:	83 ec 04             	sub    $0x4,%esp
 804a9e1:	52                   	push   %edx
 804a9e2:	50                   	push   %eax
 804a9e3:	8d 45 d8             	lea    -0x28(%ebp),%eax
 804a9e6:	83 c0 04             	add    $0x4,%eax
 804a9e9:	50                   	push   %eax
 804a9ea:	e8 81 e6 ff ff       	call   8049070 <memmove@plt>
 804a9ef:	83 c4 10             	add    $0x10,%esp
 804a9f2:	8b 45 f0             	mov    -0x10(%ebp),%eax
 804a9f5:	0f b7 c0             	movzwl %ax,%eax
 804a9f8:	83 ec 0c             	sub    $0xc,%esp
 804a9fb:	50                   	push   %eax
 804a9fc:	e8 cf e6 ff ff       	call   80490d0 <htons@plt>
 804aa01:	83 c4 10             	add    $0x10,%esp
 804aa04:	66 89 45 da          	mov    %ax,-0x26(%ebp)
 804aa08:	83 ec 04             	sub    $0x4,%esp
 804aa0b:	6a 10                	push   $0x10
 804aa0d:	8d 45 d8             	lea    -0x28(%ebp),%eax
 804aa10:	50                   	push   %eax
 804aa11:	ff 75 ec             	pushl  -0x14(%ebp)
 804aa14:	e8 37 e8 ff ff       	call   8049250 <connect@plt>
 804aa19:	83 c4 10             	add    $0x10,%esp
 804aa1c:	85 c0                	test   %eax,%eax
 804aa1e:	79 2b                	jns    804aa4b <init_driver+0x192>
 804aa20:	ff 75 f0             	pushl  -0x10(%ebp)
 804aa23:	ff 75 f4             	pushl  -0xc(%ebp)
 804aa26:	68 38 b7 04 08       	push   $0x804b738
 804aa2b:	ff 75 08             	pushl  0x8(%ebp)
 804aa2e:	e8 cd e7 ff ff       	call   8049200 <sprintf@plt>
 804aa33:	83 c4 10             	add    $0x10,%esp
 804aa36:	83 ec 0c             	sub    $0xc,%esp
 804aa39:	ff 75 ec             	pushl  -0x14(%ebp)
 804aa3c:	e8 1f e8 ff ff       	call   8049260 <close@plt>
 804aa41:	83 c4 10             	add    $0x10,%esp
 804aa44:	b8 ff ff ff ff       	mov    $0xffffffff,%eax
 804aa49:	eb 1f                	jmp    804aa6a <init_driver+0x1b1>
 804aa4b:	83 ec 0c             	sub    $0xc,%esp
 804aa4e:	ff 75 ec             	pushl  -0x14(%ebp)
 804aa51:	e8 0a e8 ff ff       	call   8049260 <close@plt>
 804aa56:	83 c4 10             	add    $0x10,%esp
 804aa59:	8b 45 08             	mov    0x8(%ebp),%eax
 804aa5c:	66 c7 00 4f 4b       	movw   $0x4b4f,(%eax)
 804aa61:	c6 40 02 00          	movb   $0x0,0x2(%eax)
 804aa65:	b8 00 00 00 00       	mov    $0x0,%eax
 804aa6a:	c9                   	leave  
 804aa6b:	c3                   	ret    

0804aa6c <driver_post>:
 804aa6c:	55                   	push   %ebp
 804aa6d:	89 e5                	mov    %esp,%ebp
 804aa6f:	83 ec 18             	sub    $0x18,%esp
 804aa72:	83 7d 10 00          	cmpl   $0x0,0x10(%ebp)
 804aa76:	74 26                	je     804aa9e <driver_post+0x32>
 804aa78:	83 ec 08             	sub    $0x8,%esp
 804aa7b:	ff 75 0c             	pushl  0xc(%ebp)
 804aa7e:	68 61 b7 04 08       	push   $0x804b761
 804aa83:	e8 d8 e5 ff ff       	call   8049060 <printf@plt>
 804aa88:	83 c4 10             	add    $0x10,%esp
 804aa8b:	8b 45 14             	mov    0x14(%ebp),%eax
 804aa8e:	66 c7 00 4f 4b       	movw   $0x4b4f,(%eax)
 804aa93:	c6 40 02 00          	movb   $0x0,0x2(%eax)
 804aa97:	b8 00 00 00 00       	mov    $0x0,%eax
 804aa9c:	eb 54                	jmp    804aaf2 <driver_post+0x86>
 804aa9e:	83 7d 08 00          	cmpl   $0x0,0x8(%ebp)
 804aaa2:	74 3d                	je     804aae1 <driver_post+0x75>
 804aaa4:	8b 45 08             	mov    0x8(%ebp),%eax
 804aaa7:	0f b6 00             	movzbl (%eax),%eax
 804aaaa:	0f b6 c0             	movzbl %al,%eax
 804aaad:	85 c0                	test   %eax,%eax
 804aaaf:	74 30                	je     804aae1 <driver_post+0x75>
 804aab1:	83 ec 04             	sub    $0x4,%esp
 804aab4:	ff 75 14             	pushl  0x14(%ebp)
 804aab7:	ff 75 0c             	pushl  0xc(%ebp)
 804aaba:	68 78 b7 04 08       	push   $0x804b778
 804aabf:	ff 75 08             	pushl  0x8(%ebp)
 804aac2:	68 7f b7 04 08       	push   $0x804b77f
 804aac7:	68 03 d9 00 00       	push   $0xd903
 804aacc:	68 27 b7 04 08       	push   $0x804b727
 804aad1:	e8 6b f7 ff ff       	call   804a241 <submitr>
 804aad6:	83 c4 20             	add    $0x20,%esp
 804aad9:	89 45 f4             	mov    %eax,-0xc(%ebp)
 804aadc:	8b 45 f4             	mov    -0xc(%ebp),%eax
 804aadf:	eb 11                	jmp    804aaf2 <driver_post+0x86>
 804aae1:	8b 45 14             	mov    0x14(%ebp),%eax
 804aae4:	66 c7 00 4f 4b       	movw   $0x4b4f,(%eax)
 804aae9:	c6 40 02 00          	movb   $0x0,0x2(%eax)
 804aaed:	b8 00 00 00 00       	mov    $0x0,%eax
 804aaf2:	c9                   	leave  
 804aaf3:	c3                   	ret    

0804aaf4 <hash>:
 804aaf4:	55                   	push   %ebp
 804aaf5:	89 e5                	mov    %esp,%ebp
 804aaf7:	83 ec 10             	sub    $0x10,%esp
 804aafa:	c7 45 fc 00 00 00 00 	movl   $0x0,-0x4(%ebp)
 804ab01:	eb 1a                	jmp    804ab1d <hash+0x29>
 804ab03:	8b 45 fc             	mov    -0x4(%ebp),%eax
 804ab06:	6b c8 67             	imul   $0x67,%eax,%ecx
 804ab09:	8b 45 08             	mov    0x8(%ebp),%eax
 804ab0c:	8d 50 01             	lea    0x1(%eax),%edx
 804ab0f:	89 55 08             	mov    %edx,0x8(%ebp)
 804ab12:	0f b6 00             	movzbl (%eax),%eax
 804ab15:	0f be c0             	movsbl %al,%eax
 804ab18:	01 c8                	add    %ecx,%eax
 804ab1a:	89 45 fc             	mov    %eax,-0x4(%ebp)
 804ab1d:	8b 45 08             	mov    0x8(%ebp),%eax
 804ab20:	0f b6 00             	movzbl (%eax),%eax
 804ab23:	84 c0                	test   %al,%al
 804ab25:	75 dc                	jne    804ab03 <hash+0xf>
 804ab27:	8b 45 fc             	mov    -0x4(%ebp),%eax
 804ab2a:	c9                   	leave  
 804ab2b:	c3                   	ret    

0804ab2c <check>:
 804ab2c:	55                   	push   %ebp
 804ab2d:	89 e5                	mov    %esp,%ebp
 804ab2f:	83 ec 10             	sub    $0x10,%esp
 804ab32:	8b 45 08             	mov    0x8(%ebp),%eax
 804ab35:	c1 e8 1c             	shr    $0x1c,%eax
 804ab38:	85 c0                	test   %eax,%eax
 804ab3a:	75 07                	jne    804ab43 <check+0x17>
 804ab3c:	b8 00 00 00 00       	mov    $0x0,%eax
 804ab41:	eb 33                	jmp    804ab76 <check+0x4a>
 804ab43:	c7 45 fc 00 00 00 00 	movl   $0x0,-0x4(%ebp)
 804ab4a:	eb 1f                	jmp    804ab6b <check+0x3f>
 804ab4c:	8b 45 fc             	mov    -0x4(%ebp),%eax
 804ab4f:	8b 55 08             	mov    0x8(%ebp),%edx
 804ab52:	89 c1                	mov    %eax,%ecx
 804ab54:	d3 ea                	shr    %cl,%edx
 804ab56:	89 d0                	mov    %edx,%eax
 804ab58:	0f b6 c0             	movzbl %al,%eax
 804ab5b:	83 f8 0a             	cmp    $0xa,%eax
 804ab5e:	75 07                	jne    804ab67 <check+0x3b>
 804ab60:	b8 00 00 00 00       	mov    $0x0,%eax
 804ab65:	eb 0f                	jmp    804ab76 <check+0x4a>
 804ab67:	83 45 fc 08          	addl   $0x8,-0x4(%ebp)
 804ab6b:	83 7d fc 1f          	cmpl   $0x1f,-0x4(%ebp)
 804ab6f:	7e db                	jle    804ab4c <check+0x20>
 804ab71:	b8 01 00 00 00       	mov    $0x1,%eax
 804ab76:	c9                   	leave  
 804ab77:	c3                   	ret    

0804ab78 <gencookie>:
 804ab78:	55                   	push   %ebp
 804ab79:	89 e5                	mov    %esp,%ebp
 804ab7b:	83 ec 18             	sub    $0x18,%esp
 804ab7e:	ff 75 08             	pushl  0x8(%ebp)
 804ab81:	e8 6e ff ff ff       	call   804aaf4 <hash>
 804ab86:	83 c4 04             	add    $0x4,%esp
 804ab89:	83 ec 0c             	sub    $0xc,%esp
 804ab8c:	50                   	push   %eax
 804ab8d:	e8 ae e5 ff ff       	call   8049140 <srand@plt>
 804ab92:	83 c4 10             	add    $0x10,%esp
 804ab95:	e8 46 e6 ff ff       	call   80491e0 <rand@plt>
 804ab9a:	89 45 f4             	mov    %eax,-0xc(%ebp)
 804ab9d:	83 ec 0c             	sub    $0xc,%esp
 804aba0:	ff 75 f4             	pushl  -0xc(%ebp)
 804aba3:	e8 84 ff ff ff       	call   804ab2c <check>
 804aba8:	83 c4 10             	add    $0x10,%esp
 804abab:	85 c0                	test   %eax,%eax
 804abad:	74 e6                	je     804ab95 <gencookie+0x1d>
 804abaf:	8b 45 f4             	mov    -0xc(%ebp),%eax
 804abb2:	c9                   	leave  
 804abb3:	c3                   	ret    
 804abb4:	66 90                	xchg   %ax,%ax
 804abb6:	66 90                	xchg   %ax,%ax
 804abb8:	66 90                	xchg   %ax,%ax
 804abba:	66 90                	xchg   %ax,%ax
 804abbc:	66 90                	xchg   %ax,%ax
 804abbe:	66 90                	xchg   %ax,%ax

0804abc0 <__libc_csu_init>:
 804abc0:	55                   	push   %ebp
 804abc1:	57                   	push   %edi
 804abc2:	56                   	push   %esi
 804abc3:	53                   	push   %ebx
 804abc4:	e8 07 e7 ff ff       	call   80492d0 <__x86.get_pc_thunk.bx>
 804abc9:	81 c3 37 24 00 00    	add    $0x2437,%ebx
 804abcf:	83 ec 0c             	sub    $0xc,%esp
 804abd2:	8b 6c 24 28          	mov    0x28(%esp),%ebp
 804abd6:	e8 25 e4 ff ff       	call   8049000 <_init>
 804abdb:	8d b3 10 ff ff ff    	lea    -0xf0(%ebx),%esi
 804abe1:	8d 83 0c ff ff ff    	lea    -0xf4(%ebx),%eax
 804abe7:	29 c6                	sub    %eax,%esi
 804abe9:	c1 fe 02             	sar    $0x2,%esi
 804abec:	74 1f                	je     804ac0d <__libc_csu_init+0x4d>
 804abee:	31 ff                	xor    %edi,%edi
 804abf0:	83 ec 04             	sub    $0x4,%esp
 804abf3:	55                   	push   %ebp
 804abf4:	ff 74 24 2c          	pushl  0x2c(%esp)
 804abf8:	ff 74 24 2c          	pushl  0x2c(%esp)
 804abfc:	ff 94 bb 0c ff ff ff 	call   *-0xf4(%ebx,%edi,4)
 804ac03:	83 c7 01             	add    $0x1,%edi
 804ac06:	83 c4 10             	add    $0x10,%esp
 804ac09:	39 fe                	cmp    %edi,%esi
 804ac0b:	75 e3                	jne    804abf0 <__libc_csu_init+0x30>
 804ac0d:	83 c4 0c             	add    $0xc,%esp
 804ac10:	5b                   	pop    %ebx
 804ac11:	5e                   	pop    %esi
 804ac12:	5f                   	pop    %edi
 804ac13:	5d                   	pop    %ebp
 804ac14:	c3                   	ret    
 804ac15:	8d b4 26 00 00 00 00 	lea    0x0(%esi,%eiz,1),%esi
 804ac1c:	8d 74 26 00          	lea    0x0(%esi,%eiz,1),%esi

0804ac20 <__libc_csu_fini>:
 804ac20:	c3                   	ret    

Disassembly of section .fini:

0804ac24 <_fini>:
 804ac24:	53                   	push   %ebx
 804ac25:	83 ec 08             	sub    $0x8,%esp
 804ac28:	e8 a3 e6 ff ff       	call   80492d0 <__x86.get_pc_thunk.bx>
 804ac2d:	81 c3 d3 23 00 00    	add    $0x23d3,%ebx
 804ac33:	83 c4 08             	add    $0x8,%esp
 804ac36:	5b                   	pop    %ebx
 804ac37:	c3                   	ret    
